-----BEGIN CERTIFICATE-----
MIIDrTCCApWgAwIBAgIJAOmdJ+pU1nQ1MA0GCSqGSIb3DQEBBQUAMG0xCzAJBgNV
BAYTAkpQMQ4wDAYDVQQIDAVUb2t5bzEwMC4GA1UECgwnQ29yZSBBcHBsb2NhdGlv
biBEZXZlbG9wbWVudCBEZXBhcnRtZW50MRwwGgYDVQQDDBNsb2NhdGlvbi5rZGRp
Lm5lLmpwMB4XDTEzMTIwODAyNTk0MVoXDTM3MTIwMjAyNTk0MVowbTELMAkGA1UE
BhMCSlAxDjAMBgNVBAgMBVRva3lvMTAwLgYDVQQKDCdDb3JlIEFwcGxvY2F0aW9u
IERldmVsb3BtZW50IERlcGFydG1lbnQxHDAaBgNVBAMME2xvY2F0aW9uLmtkZGku
bmUuanAwggEiMA0GCSqGSIb3DQEBAQUAA4IBDwAwggEKAoIBAQDHssBcgaPRdjRq
0mjfyUNNi47BT1jtF8/wyYuW0Muz2kyF3kl7fA2HP9BJTMpFVykeH5c33l6XDYWM
8jT9c/SDVcUcZS2FFFkpDq9MiVtRdJJib/QsMzKqanf4iw53jjoTmqZFwDtmlubs
7tEkeDjRnwnVybeCZ5tWoIVCep7d/pWK2KtSstzg5klYHsZS2ussp9lFcGQfD8oH
flObsVu091+zKo+ON97R5igxUJ9eQzhPjj8tWUfJT3rLy6HCNJXMtQUMxXtDarrR
6Rz18vq6FbDvxoID1vRMCyOI9u95LFdlImow0QN/fTxerwQOCzGNyAMWpVox6b91
ai5YjHfhAgMBAAGjUDBOMB0GA1UdDgQWBBRwysV2Wo52jU7b4AHyMaoL5+7w7TAf
BgNVHSMEGDAWgBRwysV2Wo52jU7b4AHyMaoL5+7w7TAMBgNVHRMEBTADAQH/MA0G
CSqGSIb3DQEBBQUAA4IBAQBoKmI3FcTIArCKyW2uBsrtXQHgsuXe7KYyEvIFYjNN
s5U13L+Kod2qX1/w0gAd6r9HxQ6OjMQ73NMq9oPOAuoNl+F6UFgUomix/vTD4oei
h+xLiUn0FZ2tV28tCTU9Ff9j8wLPcjeH6NBmTx31goPRtsHS+jUQ5bLXmhGOSz0a
3eFe4fci6vtlpxCJ8ys6Wxij1sJoM93PFLDJzQRzrdVsV9IvZioszT/KaFEjc8s9
78mw8vQxHihcTp9dTkkC6ykuqPL00jLks3ckkw8fdSM/WdT3QAOYMj9bbVvBZKKL
/4oGmn0g6PpT9LtHY3jS4+de33hMcatsYe9KwwgJb0jL
-----END CERTIFICATE-----
Certificate:
    Data:
        Version: 3 (0x2)
        Serial Number:
            e9:9d:27:ea:54:d6:74:35
    Signature Algorithm: sha1WithRSAEncryption
        Issuer: C=JP, ST=Tokyo, O=Core Applocation Development Department, CN=location.kddi.ne.jp
        Validity
            Not Before: Dec  8 02:59:41 2013 GMT
            Not After : Dec  2 02:59:41 2037 GMT
        Subject: C=JP, ST=Tokyo, O=Core Applocation Development Department, CN=location.kddi.ne.jp
        Subject Public Key Info:
            Public Key Algorithm: rsaEncryption
                Public-Key: (2048 bit)
                Modulus:
                    00:c7:b2:c0:5c:81:a3:d1:76:34:6a:d2:68:df:c9:
                    43:4d:8b:8e:c1:4f:58:ed:17:cf:f0:c9:8b:96:d0:
                    cb:b3:da:4c:85:de:49:7b:7c:0d:87:3f:d0:49:4c:
                    ca:45:57:29:1e:1f:97:37:de:5e:97:0d:85:8c:f2:
                    34:fd:73:f4:83:55:c5:1c:65:2d:85:14:59:29:0e:
                    af:4c:89:5b:51:74:92:62:6f:f4:2c:33:32:aa:6a:
                    77:f8:8b:0e:77:8e:3a:13:9a:a6:45:c0:3b:66:96:
                    e6:ec:ee:d1:24:78:38:d1:9f:09:d5:c9:b7:82:67:
                    9b:56:a0:85:42:7a:9e:dd:fe:95:8a:d8:ab:52:b2:
                    dc:e0:e6:49:58:1e:c6:52:da:eb:2c:a7:d9:45:70:
                    64:1f:0f:ca:07:7e:53:9b:b1:5b:b4:f7:5f:b3:2a:
                    8f:8e:37:de:d1:e6:28:31:50:9f:5e:43:38:4f:8e:
                    3f:2d:59:47:c9:4f:7a:cb:cb:a1:c2:34:95:cc:b5:
                    05:0c:c5:7b:43:6a:ba:d1:e9:1c:f5:f2:fa:ba:15:
                    b0:ef:c6:82:03:d6:f4:4c:0b:23:88:f6:ef:79:2c:
                    57:65:22:6a:30:d1:03:7f:7d:3c:5e:af:04:0e:0b:
                    31:8d:c8:03:16:a5:5a:31:e9:bf:75:6a:2e:58:8c:
                    77:e1
                Exponent: 65537 (0x10001)
        X509v3 extensions:
            X509v3 Subject Key Identifier:
                70:CA:C5:76:5A:8E:76:8D:4E:DB:E0:01:F2:31:AA:0B:E7:EE:F0:ED
            X509v3 Authority Key Identifier:
                keyid:70:CA:C5:76:5A:8E:76:8D:4E:DB:E0:01:F2:31:AA:0B:E7:EE:F0:ED

            X509v3 Basic Constraints:
                CA:TRUE
    Signature Algorithm: sha1WithRSAEncryption
         68:2a:62:37:15:c4:c8:02:b0:8a:c9:6d:ae:06:ca:ed:5d:01:
         e0:b2:e5:de:ec:a6:32:12:f2:05:62:33:4d:b3:95:35:dc:bf:
         8a:a1:dd:aa:5f:5f:f0:d2:00:1d:ea:bf:47:c5:0e:8e:8c:c4:
         3b:dc:d3:2a:f6:83:ce:02:ea:0d:97:e1:7a:50:58:14:a2:68:
         b1:fe:f4:c3:e2:87:a2:87:ec:4b:89:49:f4:15:9d:ad:57:6f:
         2d:09:35:3d:15:ff:63:f3:02:cf:72:37:87:e8:d0:66:4f:1d:
         f5:82:83:d1:b6:c1:d2:fa:35:10:e5:b2:d7:9a:11:8e:4b:3d:
         1a:dd:e1:5e:e1:f7:22:ea:fb:65:a7:10:89:f3:2b:3a:5b:18:
         a3:d6:c2:68:33:dd:cf:14:b0:c9:cd:04:73:ad:d5:6c:57:d2:
         2f:66:2a:2c:cd:3f:ca:68:51:23:73:cb:3d:ef:c9:b0:f2:f4:
         31:1e:28:5c:4e:9f:5d:4e:49:02:eb:29:2e:a8:f2:f4:d2:32:
         e4:b3:77:24:93:0f:1f:75:23:3f:59:d4:f7:40:03:98:32:3f:
         5b:6d:5b:c1:64:a2:8b:ff:8a:06:9a:7d:20:e8:fa:53:f4:bb:
         47:63:78:d2:e3:e7:5e:df:78:4c:71:ab:6c:61:ef:4a:c3:08:
         09:6f:48:cb
SHA1 Fingerprint=F7:30:B2:A2:8B:4B:15:57:53:81:55:E4:81:9D:C6:5F:1B:9C:48:22
