-----BEGIN CERTIFICATE-----
MIICojCCAgugAwIBAgIJAOKRTsbHFjRqMA0GCSqGSIb3DQEBBQUAMGkxCzAJBgNV
BAYTAkRFMRAwDgYDVQQIEwdCYXZhcmlhMQ8wDQYDVQQHEwZNdW5pY2gxFjAUBgNV
BAoMDVJvaGRlJlNjaHdhcnoxDDAKBgNVBAsTA0FURTERMA8GA1UEAxMIQVRFLVRF
U1QwIBcNNzkxMjMxMjMwMDIxWhgPMjA2OTEyMDgyMzAwMjFaMGkxCzAJBgNVBAYT
AkRFMRAwDgYDVQQIEwdCYXZhcmlhMQ8wDQYDVQQHEwZNdW5pY2gxFjAUBgNVBAoM
DVJvaGRlJlNjaHdhcnoxDDAKBgNVBAsTA0FURTERMA8GA1UEAxMIQVRFLVRFU1Qw
gZ8wDQYJKoZIhvcNAQEBBQADgY0AMIGJAoGBAK9TFF6860g96uSnV5kKPHzN06JS
jI0EmxcbyKhYeOu4LB4pyGVeyxUTZhQ1f8huDix/sWZonQ69p79X/zd/gN5bxS88
uCqrgFZPwrmYDlGDR7rHZqCOwgx+qI9nxeDSmoLlsonrg6MG2rqOa4LqEHa1xrl1
lGWXLCuHHZrV+KffAgMBAAGjUDBOMB0GA1UdDgQWBBT9fQc68TXzRbksHo0DJov1
ZWx0vjAfBgNVHSMEGDAWgBT9fQc68TXzRbksHo0DJov1ZWx0vjAMBgNVHRMEBTAD
AQH/MA0GCSqGSIb3DQEBBQUAA4GBAHbN7hCWrOCJbZv3sNm9Zt6pgq1DKVDjfBky
x9wi7YuM1EaL7Tnn/2m/+nRincBr9IKCQigIrR5m43ZMJMyZMKYIG1OV1ad2b5Fa
iQTNeyzo/hekFy1XSEon9McrScls4sGn+2WPO4EShyLxTD6/lqmBBQjl7288g+Hr
UCq43huD
-----END CERTIFICATE-----
Certificate:
    Data:
        Version: 3 (0x2)
        Serial Number:
            e2:91:4e:c6:c7:16:34:6a
    Signature Algorithm: sha1WithRSAEncryption
        Issuer: C=DE, ST=Bavaria, L=Munich, O=Rohde&Schwarz, OU=ATE, CN=ATE-TEST
        Validity
            Not Before: Dec 31 23:00:21 1979 GMT
            Not After : Dec  8 23:00:21 2069 GMT
        Subject: C=DE, ST=Bavaria, L=Munich, O=Rohde&Schwarz, OU=ATE, CN=ATE-TEST
        Subject Public Key Info:
            Public Key Algorithm: rsaEncryption
                Public-Key: (1024 bit)
                Modulus:
                    00:af:53:14:5e:bc:eb:48:3d:ea:e4:a7:57:99:0a:
                    3c:7c:cd:d3:a2:52:8c:8d:04:9b:17:1b:c8:a8:58:
                    78:eb:b8:2c:1e:29:c8:65:5e:cb:15:13:66:14:35:
                    7f:c8:6e:0e:2c:7f:b1:66:68:9d:0e:bd:a7:bf:57:
                    ff:37:7f:80:de:5b:c5:2f:3c:b8:2a:ab:80:56:4f:
                    c2:b9:98:0e:51:83:47:ba:c7:66:a0:8e:c2:0c:7e:
                    a8:8f:67:c5:e0:d2:9a:82:e5:b2:89:eb:83:a3:06:
                    da:ba:8e:6b:82:ea:10:76:b5:c6:b9:75:94:65:97:
                    2c:2b:87:1d:9a:d5:f8:a7:df
                Exponent: 65537 (0x10001)
        X509v3 extensions:
            X509v3 Subject Key Identifier:
                FD:7D:07:3A:F1:35:F3:45:B9:2C:1E:8D:03:26:8B:F5:65:6C:74:BE
            X509v3 Authority Key Identifier:
                keyid:FD:7D:07:3A:F1:35:F3:45:B9:2C:1E:8D:03:26:8B:F5:65:6C:74:BE

            X509v3 Basic Constraints:
                CA:TRUE
    Signature Algorithm: sha1WithRSAEncryption
         76:cd:ee:10:96:ac:e0:89:6d:9b:f7:b0:d9:bd:66:de:a9:82:
         ad:43:29:50:e3:7c:19:32:c7:dc:22:ed:8b:8c:d4:46:8b:ed:
         39:e7:ff:69:bf:fa:74:62:9d:c0:6b:f4:82:82:42:28:08:ad:
         1e:66:e3:76:4c:24:cc:99:30:a6:08:1b:53:95:d5:a7:76:6f:
         91:5a:89:04:cd:7b:2c:e8:fe:17:a4:17:2d:57:48:4a:27:f4:
         c7:2b:49:c9:6c:e2:c1:a7:fb:65:8f:3b:81:12:87:22:f1:4c:
         3e:bf:96:a9:81:05:08:e5:ef:6f:3c:83:e1:eb:50:2a:b8:de:
         1b:83
SHA1 Fingerprint=97:02:38:19:2F:A2:89:D7:83:64:B1:EA:65:5D:05:52:68:25:DD:B4
