-----BEGIN CERTIFICATE-----
MIICSzCCAbQCCQCCNadq6ShcgjANBgkqhkiG9w0BAQUFADBpMQswCQYDVQQGEwJE
RTEQMA4GA1UECBMHQmF2YXJpYTEPMA0GA1UEBxMGTXVuaWNoMRYwFAYDVQQKDA1S
b2hkZSZTY2h3YXJ6MQwwCgYDVQQLEwNBVEUxETAPBgNVBAMTCEFURS1URVNUMCAX
DTc5MTIzMTIzMDAxNVoYDzIwNjkxMjA4MjMwMDE1WjBpMQswCQYDVQQGEwJERTEQ
MA4GA1UECBMHQmF2YXJpYTEPMA0GA1UEBxMGTXVuaWNoMRYwFAYDVQQKDA1Sb2hk
ZSZTY2h3YXJ6MQwwCgYDVQQLEwNBVEUxETAPBgNVBAMTCEFURS1URVNUMIGfMA0G
CSqGSIb3DQEBAQUAA4GNADCBiQKBgQCvUxRevOtIPerkp1eZCjx8zdOiUoyNBJsX
G8ioWHjruCweKchlXssVE2YUNX/Ibg4sf7FmaJ0Ovae/V/83f4DeW8UvPLgqq4BW
T8K5mA5Rg0e6x2agjsIMfqiPZ8Xg0pqC5bKJ64OjBtq6jmuC6hB2tca5dZRllywr
hx2a1fin3wIDAQABMA0GCSqGSIb3DQEBBQUAA4GBABiI4c2AXO2eZHxrQnqY22ph
0YgkilqJbrv5lyM4St7XdXmqJomN0KkquT0l4OcajjCWi1TFthYaRep35rfaSHv+
PX/5Uwp+mvjQXApIvcVgRtty2Wlpzyy9lGmPf4N503Gq355mKcMcqbhma2pTG6p+
1bHGxbU8T+1MdPkoiMBB
-----END CERTIFICATE-----
Certificate:
    Data:
        Version: 1 (0x0)
        Serial Number:
            82:35:a7:6a:e9:28:5c:82
    Signature Algorithm: sha1WithRSAEncryption
        Issuer: C=DE, ST=Bavaria, L=Munich, O=Rohde&Schwarz, OU=ATE, CN=ATE-TEST
        Validity
            Not Before: Dec 31 23:00:15 1979 GMT
            Not After : Dec  8 23:00:15 2069 GMT
        Subject: C=DE, ST=Bavaria, L=Munich, O=Rohde&Schwarz, OU=ATE, CN=ATE-TEST
        Subject Public Key Info:
            Public Key Algorithm: rsaEncryption
                Public-Key: (1024 bit)
                Modulus:
                    00:af:53:14:5e:bc:eb:48:3d:ea:e4:a7:57:99:0a:
                    3c:7c:cd:d3:a2:52:8c:8d:04:9b:17:1b:c8:a8:58:
                    78:eb:b8:2c:1e:29:c8:65:5e:cb:15:13:66:14:35:
                    7f:c8:6e:0e:2c:7f:b1:66:68:9d:0e:bd:a7:bf:57:
                    ff:37:7f:80:de:5b:c5:2f:3c:b8:2a:ab:80:56:4f:
                    c2:b9:98:0e:51:83:47:ba:c7:66:a0:8e:c2:0c:7e:
                    a8:8f:67:c5:e0:d2:9a:82:e5:b2:89:eb:83:a3:06:
                    da:ba:8e:6b:82:ea:10:76:b5:c6:b9:75:94:65:97:
                    2c:2b:87:1d:9a:d5:f8:a7:df
                Exponent: 65537 (0x10001)
    Signature Algorithm: sha1WithRSAEncryption
         18:88:e1:cd:80:5c:ed:9e:64:7c:6b:42:7a:98:db:6a:61:d1:
         88:24:8a:5a:89:6e:bb:f9:97:23:38:4a:de:d7:75:79:aa:26:
         89:8d:d0:a9:2a:b9:3d:25:e0:e7:1a:8e:30:96:8b:54:c5:b6:
         16:1a:45:ea:77:e6:b7:da:48:7b:fe:3d:7f:f9:53:0a:7e:9a:
         f8:d0:5c:0a:48:bd:c5:60:46:db:72:d9:69:69:cf:2c:bd:94:
         69:8f:7f:83:79:d3:71:aa:df:9e:66:29:c3:1c:a9:b8:66:6b:
         6a:53:1b:aa:7e:d5:b1:c6:c5:b5:3c:4f:ed:4c:74:f9:28:88:
         c0:41
SHA1 Fingerprint=18:B8:97:CB:27:F4:F7:1A:31:04:B4:BA:A2:81:FE:28:3E:48:0D:F3
