-----BEGIN CERTIFICATE-----
MIICDDCCAbYCCQDTsReF396KmzANBgkqhkiG9w0BAQUFADCBjDEQMA4GA1UEChMH
U3BpcmVudDEMMAoGA1UECxMDUEFXMSIwIAYJKoZIhvcNAQkBFhNzdXBwb3J0QHNw
aXJlbnQuY29tMRIwEAYDVQQHEwlFYXRvbnRvd24xCzAJBgNVBAgTAk5KMQswCQYD
VQQGEwJVUzEYMBYGA1UEAxMPd3d3LnNwaXJlbnQuY29tMB4XDTExMDkwMjAyMjc0
OFoXDTIxMDgzMDAyMjc0OFowgYwxEDAOBgNVBAoTB1NwaXJlbnQxDDAKBgNVBAsT
A1BBVzEiMCAGCSqGSIb3DQEJARYTc3VwcG9ydEBzcGlyZW50LmNvbTESMBAGA1UE
BxMJRWF0b250b3duMQswCQYDVQQIEwJOSjELMAkGA1UEBhMCVVMxGDAWBgNVBAMT
D3d3dy5zcGlyZW50LmNvbTBcMA0GCSqGSIb3DQEBAQUAA0sAMEgCQQDrVQ0g3cgC
0GZ7CVBwlBWf3ogxpi82rvxY7o3NGNoNWJKD/aju650HDph+/hriAxbAva9zIaKA
YJEmN9oNPDxRAgMBAAEwDQYJKoZIhvcNAQEFBQADQQAJpKZ/i+KHVdndyfdYI5lM
oNe6EkRXrrFSNPiKH6UoKdq+bbMlLljzBhd76Bgn18rMdAfx0yp2Z+aoK68/bbGJ
-----END CERTIFICATE-----
Certificate:
    Data:
        Version: 1 (0x0)
        Serial Number:
            d3:b1:17:85:df:de:8a:9b
    Signature Algorithm: sha1WithRSAEncryption
        Issuer: O=Spirent, OU=PAW/emailAddress=support@spirent.com, L=Eatontown, ST=NJ, C=US, CN=www.spirent.com
        Validity
            Not Before: Sep  2 02:27:48 2011 GMT
            Not After : Aug 30 02:27:48 2021 GMT
        Subject: O=Spirent, OU=PAW/emailAddress=support@spirent.com, L=Eatontown, ST=NJ, C=US, CN=www.spirent.com
        Subject Public Key Info:
            Public Key Algorithm: rsaEncryption
                Public-Key: (512 bit)
                Modulus:
                    00:eb:55:0d:20:dd:c8:02:d0:66:7b:09:50:70:94:
                    15:9f:de:88:31:a6:2f:36:ae:fc:58:ee:8d:cd:18:
                    da:0d:58:92:83:fd:a8:ee:eb:9d:07:0e:98:7e:fe:
                    1a:e2:03:16:c0:bd:af:73:21:a2:80:60:91:26:37:
                    da:0d:3c:3c:51
                Exponent: 65537 (0x10001)
    Signature Algorithm: sha1WithRSAEncryption
         09:a4:a6:7f:8b:e2:87:55:d9:dd:c9:f7:58:23:99:4c:a0:d7:
         ba:12:44:57:ae:b1:52:34:f8:8a:1f:a5:28:29:da:be:6d:b3:
         25:2e:58:f3:06:17:7b:e8:18:27:d7:ca:cc:74:07:f1:d3:2a:
         76:67:e6:a8:2b:af:3f:6d:b1:89
SHA1 Fingerprint=56:B8:57:24:68:A8:88:BC:B9:B6:8E:2F:0A:18:A3:41:98:EF:C2:B0
