-----BEGIN CERTIFICATE-----
MIIFvDCCA6QCCQCg0UECrM07ljANBgkqhkiG9w0BAQUFADCBnzEfMB0GA1UEChMW
U3BpcmVudCBDb21tdW5pY2F0aW9uczEMMAoGA1UECxMDUEFXMSIwIAYJKoZIhvcN
AQkBFhNzdXBwb3J0QHNwaXJlbnQuY29tMRIwEAYDVQQHEwlFYXRvbnRvd24xCzAJ
BgNVBAgTAk5KMQswCQYDVQQGEwJVUzEcMBoGA1UEAxMTd3d3LnNwaXJlbnQtbGNz
LmNvbTAeFw0xMjAyMjAwNjQwMzRaFw0yMjAyMTcwNjQwMzRaMIGfMR8wHQYDVQQK
ExZTcGlyZW50IENvbW11bmljYXRpb25zMQwwCgYDVQQLEwNQQVcxIjAgBgkqhkiG
9w0BCQEWE3N1cHBvcnRAc3BpcmVudC5jb20xEjAQBgNVBAcTCUVhdG9udG93bjEL
MAkGA1UECBMCTkoxCzAJBgNVBAYTAlVTMRwwGgYDVQQDExN3d3cuc3BpcmVudC1s
Y3MuY29tMIICIjANBgkqhkiG9w0BAQEFAAOCAg8AMIICCgKCAgEA0hJNgKoFeGXC
JkGbeNpLRhOmFSOkfiO7Y+FYuUliNF4pwTrHizO1LgzoEoi2wdDfDSIY3HtBFqXk
3QXZbxG239/PSFw9ONGoODSesQasUb2PJuRP6pOiLjAo810vyj31nDM5R7UgVnni
xNtZX+WlQUNaXSkClaVU/a5Rh1GgBmk0Faf80c0d1EMJzDy731J4eipPGn1fmh0S
tq68dWCWV+391MWy0LWL0UEvl+uyzAvp7H2IAaohO34VtFDxGYRuvw8qfbIJHB8p
xZBGirnlYdfkPcyv031MYScPFzmuv+qxYWOGy/KB3WTRXsSzTdQQHBzn4M8/OtRf
LRsffWEBsWnnDBB4+N+FSqh/gkkU9iL0vrjo1SYzBZF89tfASbxxIs045naMPD/i
uZ1s62267ushTGaPmSpLFWX+KylyAkzXWDiI7Or86DOIo9LGIVOlMciK2rdUkZs7
fNvvSUxhcdCslzbw456WNHXPT8sPtwLiD689lx60JIsk3D7dcWX9buvjld7zFoTw
jz/elNTAocwg3JoujSKV2E1ztHAjpXR9s4QEJshwfa9bkT6iLxcjy3ujbB23u00/
YOplqOu0ZSpqoO7anzseE3vcL8bhCFxz23k+vvGrbzciP62SgLKKf8E97pq+VuhV
6YE/MTajJ7tzDz3O482zurL1NV2I+2kCAwEAATANBgkqhkiG9w0BAQUFAAOCAgEA
XNGBXp3glf6K5l78QNLEyCHWuoUJY1/gLiGCPBKv3lBIPTdqY/mxJMc3dM+SErAI
utsMQQOJZ6jircrzyVYn88P7Y5QzB9m+h6p9wxFix4aqISvOXfQhmf2fWS1bc64o
2ZxkBJRTvO1epz/rD06HVgJ3HLW016EMYN2cDrrUEZMM8kKdDv/Fxu6vZ+Yt/CUx
+isJ+Ute4+t1o2p0c4lMOH4IRGq6/Pe/8wKSGPXwgGdnVIzvbjGv9Lfy3mbhyulk
yb5DhYebFbRS6rGLHv/McpYy8d+ualEkAIxVa2T6sDG9eskih5qCIjEBSnTvWJsS
kuTMtHmc6ZnHuoGuR1GkwaZ9EH6TtcNvt1XfgT1dulbGaDTnBI7lqLGfiUTDue8f
VivVLtZDcBl9GxfQXig6CpD7Yvr10GaJ2IbaRZkbtkMUTbBJi32GF/FihHv1V/ZE
DGODfp8J2GPh/KdOihksV3WfpS6EIS5zKxNKNJdJUUtFJ5ERxTCrz+QgBwchJnhQ
WCIAzz/9//lvVPzaz22t/iWzx5iW3B6pxI8PmbZeC1NYSvbG3aP9e25TFlD4/i00
b1Nu4Xz+RltgUmj69i+eFeA9VwtqOoez/tLLCXT+w0qEz9faIRwc0qfskCamqw9O
6VPtyMKSYy5++0U0xZBpqjbSSs4FRWNnC4iXXjZ6MgI=
-----END CERTIFICATE-----
Certificate:
    Data:
        Version: 1 (0x0)
        Serial Number:
            a0:d1:41:02:ac:cd:3b:96
    Signature Algorithm: sha1WithRSAEncryption
        Issuer: O=Spirent Communications, OU=PAW/emailAddress=support@spirent.com, L=Eatontown, ST=NJ, C=US, CN=www.spirent-lcs.com
        Validity
            Not Before: Feb 20 06:40:34 2012 GMT
            Not After : Feb 17 06:40:34 2022 GMT
        Subject: O=Spirent Communications, OU=PAW/emailAddress=support@spirent.com, L=Eatontown, ST=NJ, C=US, CN=www.spirent-lcs.com
        Subject Public Key Info:
            Public Key Algorithm: rsaEncryption
                Public-Key: (4096 bit)
                Modulus:
                    00:d2:12:4d:80:aa:05:78:65:c2:26:41:9b:78:da:
                    4b:46:13:a6:15:23:a4:7e:23:bb:63:e1:58:b9:49:
                    62:34:5e:29:c1:3a:c7:8b:33:b5:2e:0c:e8:12:88:
                    b6:c1:d0:df:0d:22:18:dc:7b:41:16:a5:e4:dd:05:
                    d9:6f:11:b6:df:df:cf:48:5c:3d:38:d1:a8:38:34:
                    9e:b1:06:ac:51:bd:8f:26:e4:4f:ea:93:a2:2e:30:
                    28:f3:5d:2f:ca:3d:f5:9c:33:39:47:b5:20:56:79:
                    e2:c4:db:59:5f:e5:a5:41:43:5a:5d:29:02:95:a5:
                    54:fd:ae:51:87:51:a0:06:69:34:15:a7:fc:d1:cd:
                    1d:d4:43:09:cc:3c:bb:df:52:78:7a:2a:4f:1a:7d:
                    5f:9a:1d:12:b6:ae:bc:75:60:96:57:ed:fd:d4:c5:
                    b2:d0:b5:8b:d1:41:2f:97:eb:b2:cc:0b:e9:ec:7d:
                    88:01:aa:21:3b:7e:15:b4:50:f1:19:84:6e:bf:0f:
                    2a:7d:b2:09:1c:1f:29:c5:90:46:8a:b9:e5:61:d7:
                    e4:3d:cc:af:d3:7d:4c:61:27:0f:17:39:ae:bf:ea:
                    b1:61:63:86:cb:f2:81:dd:64:d1:5e:c4:b3:4d:d4:
                    10:1c:1c:e7:e0:cf:3f:3a:d4:5f:2d:1b:1f:7d:61:
                    01:b1:69:e7:0c:10:78:f8:df:85:4a:a8:7f:82:49:
                    14:f6:22:f4:be:b8:e8:d5:26:33:05:91:7c:f6:d7:
                    c0:49:bc:71:22:cd:38:e6:76:8c:3c:3f:e2:b9:9d:
                    6c:eb:6d:ba:ee:eb:21:4c:66:8f:99:2a:4b:15:65:
                    fe:2b:29:72:02:4c:d7:58:38:88:ec:ea:fc:e8:33:
                    88:a3:d2:c6:21:53:a5:31:c8:8a:da:b7:54:91:9b:
                    3b:7c:db:ef:49:4c:61:71:d0:ac:97:36:f0:e3:9e:
                    96:34:75:cf:4f:cb:0f:b7:02:e2:0f:af:3d:97:1e:
                    b4:24:8b:24:dc:3e:dd:71:65:fd:6e:eb:e3:95:de:
                    f3:16:84:f0:8f:3f:de:94:d4:c0:a1:cc:20:dc:9a:
                    2e:8d:22:95:d8:4d:73:b4:70:23:a5:74:7d:b3:84:
                    04:26:c8:70:7d:af:5b:91:3e:a2:2f:17:23:cb:7b:
                    a3:6c:1d:b7:bb:4d:3f:60:ea:65:a8:eb:b4:65:2a:
                    6a:a0:ee:da:9f:3b:1e:13:7b:dc:2f:c6:e1:08:5c:
                    73:db:79:3e:be:f1:ab:6f:37:22:3f:ad:92:80:b2:
                    8a:7f:c1:3d:ee:9a:be:56:e8:55:e9:81:3f:31:36:
                    a3:27:bb:73:0f:3d:ce:e3:cd:b3:ba:b2:f5:35:5d:
                    88:fb:69
                Exponent: 65537 (0x10001)
    Signature Algorithm: sha1WithRSAEncryption
         5c:d1:81:5e:9d:e0:95:fe:8a:e6:5e:fc:40:d2:c4:c8:21:d6:
         ba:85:09:63:5f:e0:2e:21:82:3c:12:af:de:50:48:3d:37:6a:
         63:f9:b1:24:c7:37:74:cf:92:12:b0:08:ba:db:0c:41:03:89:
         67:a8:e2:ad:ca:f3:c9:56:27:f3:c3:fb:63:94:33:07:d9:be:
         87:aa:7d:c3:11:62:c7:86:aa:21:2b:ce:5d:f4:21:99:fd:9f:
         59:2d:5b:73:ae:28:d9:9c:64:04:94:53:bc:ed:5e:a7:3f:eb:
         0f:4e:87:56:02:77:1c:b5:b4:d7:a1:0c:60:dd:9c:0e:ba:d4:
         11:93:0c:f2:42:9d:0e:ff:c5:c6:ee:af:67:e6:2d:fc:25:31:
         fa:2b:09:f9:4b:5e:e3:eb:75:a3:6a:74:73:89:4c:38:7e:08:
         44:6a:ba:fc:f7:bf:f3:02:92:18:f5:f0:80:67:67:54:8c:ef:
         6e:31:af:f4:b7:f2:de:66:e1:ca:e9:64:c9:be:43:85:87:9b:
         15:b4:52:ea:b1:8b:1e:ff:cc:72:96:32:f1:df:ae:6a:51:24:
         00:8c:55:6b:64:fa:b0:31:bd:7a:c9:22:87:9a:82:22:31:01:
         4a:74:ef:58:9b:12:92:e4:cc:b4:79:9c:e9:99:c7:ba:81:ae:
         47:51:a4:c1:a6:7d:10:7e:93:b5:c3:6f:b7:55:df:81:3d:5d:
         ba:56:c6:68:34:e7:04:8e:e5:a8:b1:9f:89:44:c3:b9:ef:1f:
         56:2b:d5:2e:d6:43:70:19:7d:1b:17:d0:5e:28:3a:0a:90:fb:
         62:fa:f5:d0:66:89:d8:86:da:45:99:1b:b6:43:14:4d:b0:49:
         8b:7d:86:17:f1:62:84:7b:f5:57:f6:44:0c:63:83:7e:9f:09:
         d8:63:e1:fc:a7:4e:8a:19:2c:57:75:9f:a5:2e:84:21:2e:73:
         2b:13:4a:34:97:49:51:4b:45:27:91:11:c5:30:ab:cf:e4:20:
         07:07:21:26:78:50:58:22:00:cf:3f:fd:ff:f9:6f:54:fc:da:
         cf:6d:ad:fe:25:b3:c7:98:96:dc:1e:a9:c4:8f:0f:99:b6:5e:
         0b:53:58:4a:f6:c6:dd:a3:fd:7b:6e:53:16:50:f8:fe:2d:34:
         6f:53:6e:e1:7c:fe:46:5b:60:52:68:fa:f6:2f:9e:15:e0:3d:
         57:0b:6a:3a:87:b3:fe:d2:cb:09:74:fe:c3:4a:84:cf:d7:da:
         21:1c:1c:d2:a7:ec:90:26:a6:ab:0f:4e:e9:53:ed:c8:c2:92:
         63:2e:7e:fb:45:34:c5:90:69:aa:36:d2:4a:ce:05:45:63:67:
         0b:88:97:5e:36:7a:32:02
SHA1 Fingerprint=F0:A5:EA:4F:BD:9E:22:38:FD:A2:08:F1:2E:5F:65:48:A9:1C:EF:95
