-----BEGIN CERTIFICATE-----
MIICNDCCAd4CCQDNZBw4CvIZ/TANBgkqhkiG9w0BAQsFADCBnzEfMB0GA1UEChMW
U3BpcmVudCBDb21tdW5pY2F0aW9uczEMMAoGA1UECxMDUEFXMSIwIAYJKoZIhvcN
AQkBFhNzdXBwb3J0QHNwaXJlbnQuY29tMRIwEAYDVQQHEwlFYXRvbnRvd24xCzAJ
BgNVBAgTAk5KMQswCQYDVQQGEwJVUzEcMBoGA1UEAxMTd3d3LnNwaXJlbnQtbGNz
LmNvbTAgFw0xNzAzMDMwOTM1NTRaGA8yMTE3MDIwNzA5MzU1NFowgZ8xHzAdBgNV
BAoTFlNwaXJlbnQgQ29tbXVuaWNhdGlvbnMxDDAKBgNVBAsTA1BBVzEiMCAGCSqG
SIb3DQEJARYTc3VwcG9ydEBzcGlyZW50LmNvbTESMBAGA1UEBxMJRWF0b250b3du
MQswCQYDVQQIEwJOSjELMAkGA1UEBhMCVVMxHDAaBgNVBAMTE3d3dy5zcGlyZW50
LWxjcy5jb20wXDANBgkqhkiG9w0BAQEFAANLADBIAkEAy+6I3kxd5NJA5r0n76br
XTP1n8gsFU9ygKW8oGbLbqRGKmc9tGg8JwE9hxmCy+TvHEKRGCJpFouA6PIaH48M
JwIDAQABMA0GCSqGSIb3DQEBCwUAA0EAVdeZ9Baf+NS9WFqwp1XBXjJzBsTv/yoK
IfaYpn+XTD8J49AYcu1J+X/bGGBfu3/WEcF0MkR0+1n0fdsecImpNA==
-----END CERTIFICATE-----
Certificate:
    Data:
        Version: 1 (0x0)
        Serial Number:
            cd:64:1c:38:0a:f2:19:fd
    Signature Algorithm: sha256WithRSAEncryption
        Issuer: O=Spirent Communications, OU=PAW/emailAddress=support@spirent.com, L=Eatontown, ST=NJ, C=US, CN=www.spirent-lcs.com
        Validity
            Not Before: Mar  3 09:35:54 2017 GMT
            Not After : Feb  7 09:35:54 2117 GMT
        Subject: O=Spirent Communications, OU=PAW/emailAddress=support@spirent.com, L=Eatontown, ST=NJ, C=US, CN=www.spirent-lcs.com
        Subject Public Key Info:
            Public Key Algorithm: rsaEncryption
                Public-Key: (512 bit)
                Modulus:
                    00:cb:ee:88:de:4c:5d:e4:d2:40:e6:bd:27:ef:a6:
                    eb:5d:33:f5:9f:c8:2c:15:4f:72:80:a5:bc:a0:66:
                    cb:6e:a4:46:2a:67:3d:b4:68:3c:27:01:3d:87:19:
                    82:cb:e4:ef:1c:42:91:18:22:69:16:8b:80:e8:f2:
                    1a:1f:8f:0c:27
                Exponent: 65537 (0x10001)
    Signature Algorithm: sha256WithRSAEncryption
         55:d7:99:f4:16:9f:f8:d4:bd:58:5a:b0:a7:55:c1:5e:32:73:
         06:c4:ef:ff:2a:0a:21:f6:98:a6:7f:97:4c:3f:09:e3:d0:18:
         72:ed:49:f9:7f:db:18:60:5f:bb:7f:d6:11:c1:74:32:44:74:
         fb:59:f4:7d:db:1e:70:89:a9:34
SHA1 Fingerprint=B1:DE:C8:55:35:3C:F8:6C:1E:32:12:85:3C:3E:A6:E3:F9:64:CC:45
