-----BEGIN CERTIFICATE-----
MIIDvDCCAqQCCQDDkVHHKI3WVzANBgkqhkiG9w0BAQUFADCBnzEfMB0GA1UEChMW
U3BpcmVudCBDb21tdW5pY2F0aW9uczEMMAoGA1UECxMDUEFXMSIwIAYJKoZIhvcN
AQkBFhNzdXBwb3J0QHNwaXJlbnQuY29tMRIwEAYDVQQHEwlFYXRvbnRvd24xCzAJ
BgNVBAgTAk5KMQswCQYDVQQGEwJVUzEcMBoGA1UEAxMTd3d3LnNwaXJlbnQtbGNz
LmNvbTAeFw0xMzA1MjIwNTEzMjRaFw0yMzA1MjAwNTEzMjRaMIGfMR8wHQYDVQQK
ExZTcGlyZW50IENvbW11bmljYXRpb25zMQwwCgYDVQQLEwNQQVcxIjAgBgkqhkiG
9w0BCQEWE3N1cHBvcnRAc3BpcmVudC5jb20xEjAQBgNVBAcTCUVhdG9udG93bjEL
MAkGA1UECBMCTkoxCzAJBgNVBAYTAlVTMRwwGgYDVQQDExN3d3cuc3BpcmVudC1s
Y3MuY29tMIIBIjANBgkqhkiG9w0BAQEFAAOCAQ8AMIIBCgKCAQEAmiQewaITek2/
tv8rRGhuMwlC3wM6O8C9POYdwWD98OwzasaxwjDyljV2Cdj/77YOkwXgFoyQRXoA
KtsnOWNG3PjJ+tA/0weMyWXWGDNEii4YhUrVKgSswMzgf6H4bEYy3XJrfwc3DUCb
WrcrG1Vlk2s9DDTY56A5HuevYP6BOxZK6XOHR7aYFiDXn9QXFTiIK8W4nRkTtAKl
SNBfwbNIbwkUygTjcqjVwZ4ZkjUNR+BVBJbu6KWumfxfCjN0HcKWiGACu3Zag3gZ
VIYuQsXkln5Nr61H9H4ZuSiOp7wl/P8ihv3r8ohfSHmPKSJjWwAOIkmPSg7+R5nv
wMd5r4a2NQIDAQABMA0GCSqGSIb3DQEBBQUAA4IBAQB2F8+oXZnxCT4SjPxGu1+/
ptsHFdQnjANq50o6D1DYKnXufbkq/4DfMMTM62ViJ0WBxnsO1fPyhoiWmQ4vQJjI
0Vr+4fDNo3eZhqSWtyeEp5SUopRIZy3kYeXqOQAeav8RqTs6/WNRSOuyKpCL3s0T
uilBgNDSMKuUA8zAOCU/H/xyHGgBou5F9dklzMStfQ7kx6G5vvpprdS+kZfov400
XH8UAvH/E9UxS8Kexavb0YFN1Vj4e81zmpZu4k14TR97cLtZHXyaDl2T7GetgEgU
OaCbMeBGRy8fa14GOmdMmxJ7Ufps/SvyLop9Fv3HrIAES7w5cKEyLw5fY0ZxKU5C
-----END CERTIFICATE-----
Certificate:
    Data:
        Version: 1 (0x0)
        Serial Number:
            c3:91:51:c7:28:8d:d6:57
    Signature Algorithm: sha1WithRSAEncryption
        Issuer: O=Spirent Communications, OU=PAW/emailAddress=support@spirent.com, L=Eatontown, ST=NJ, C=US, CN=www.spirent-lcs.com
        Validity
            Not Before: May 22 05:13:24 2013 GMT
            Not After : May 20 05:13:24 2023 GMT
        Subject: O=Spirent Communications, OU=PAW/emailAddress=support@spirent.com, L=Eatontown, ST=NJ, C=US, CN=www.spirent-lcs.com
        Subject Public Key Info:
            Public Key Algorithm: rsaEncryption
                Public-Key: (2048 bit)
                Modulus:
                    00:9a:24:1e:c1:a2:13:7a:4d:bf:b6:ff:2b:44:68:
                    6e:33:09:42:df:03:3a:3b:c0:bd:3c:e6:1d:c1:60:
                    fd:f0:ec:33:6a:c6:b1:c2:30:f2:96:35:76:09:d8:
                    ff:ef:b6:0e:93:05:e0:16:8c:90:45:7a:00:2a:db:
                    27:39:63:46:dc:f8:c9:fa:d0:3f:d3:07:8c:c9:65:
                    d6:18:33:44:8a:2e:18:85:4a:d5:2a:04:ac:c0:cc:
                    e0:7f:a1:f8:6c:46:32:dd:72:6b:7f:07:37:0d:40:
                    9b:5a:b7:2b:1b:55:65:93:6b:3d:0c:34:d8:e7:a0:
                    39:1e:e7:af:60:fe:81:3b:16:4a:e9:73:87:47:b6:
                    98:16:20:d7:9f:d4:17:15:38:88:2b:c5:b8:9d:19:
                    13:b4:02:a5:48:d0:5f:c1:b3:48:6f:09:14:ca:04:
                    e3:72:a8:d5:c1:9e:19:92:35:0d:47:e0:55:04:96:
                    ee:e8:a5:ae:99:fc:5f:0a:33:74:1d:c2:96:88:60:
                    02:bb:76:5a:83:78:19:54:86:2e:42:c5:e4:96:7e:
                    4d:af:ad:47:f4:7e:19:b9:28:8e:a7:bc:25:fc:ff:
                    22:86:fd:eb:f2:88:5f:48:79:8f:29:22:63:5b:00:
                    0e:22:49:8f:4a:0e:fe:47:99:ef:c0:c7:79:af:86:
                    b6:35
                Exponent: 65537 (0x10001)
    Signature Algorithm: sha1WithRSAEncryption
         76:17:cf:a8:5d:99:f1:09:3e:12:8c:fc:46:bb:5f:bf:a6:db:
         07:15:d4:27:8c:03:6a:e7:4a:3a:0f:50:d8:2a:75:ee:7d:b9:
         2a:ff:80:df:30:c4:cc:eb:65:62:27:45:81:c6:7b:0e:d5:f3:
         f2:86:88:96:99:0e:2f:40:98:c8:d1:5a:fe:e1:f0:cd:a3:77:
         99:86:a4:96:b7:27:84:a7:94:94:a2:94:48:67:2d:e4:61:e5:
         ea:39:00:1e:6a:ff:11:a9:3b:3a:fd:63:51:48:eb:b2:2a:90:
         8b:de:cd:13:ba:29:41:80:d0:d2:30:ab:94:03:cc:c0:38:25:
         3f:1f:fc:72:1c:68:01:a2:ee:45:f5:d9:25:cc:c4:ad:7d:0e:
         e4:c7:a1:b9:be:fa:69:ad:d4:be:91:97:e8:bf:8d:34:5c:7f:
         14:02:f1:ff:13:d5:31:4b:c2:9e:c5:ab:db:d1:81:4d:d5:58:
         f8:7b:cd:73:9a:96:6e:e2:4d:78:4d:1f:7b:70:bb:59:1d:7c:
         9a:0e:5d:93:ec:67:ad:80:48:14:39:a0:9b:31:e0:46:47:2f:
         1f:6b:5e:06:3a:67:4c:9b:12:7b:51:fa:6c:fd:2b:f2:2e:8a:
         7d:16:fd:c7:ac:80:04:4b:bc:39:70:a1:32:2f:0e:5f:63:46:
         71:29:4e:42
SHA1 Fingerprint=FB:10:C1:6C:00:2B:6D:49:AB:58:86:80:AE:81:A1:27:50:E5:90:AE
