-----BEGIN CERTIFICATE-----
MIIDvDCCAqQCCQCTs5QCfs4x9jANBgkqhkiG9w0BAQUFADCBnzEfMB0GA1UEChMW
U3BpcmVudCBDb21tdW5pY2F0aW9uczEMMAoGA1UECxMDUEFXMSIwIAYJKoZIhvcN
AQkBFhNzdXBwb3J0QHNwaXJlbnQuY29tMRIwEAYDVQQHEwlFYXRvbnRvd24xCzAJ
BgNVBAgTAk5KMQswCQYDVQQGEwJVUzEcMBoGA1UEAxMTd3d3LnNwaXJlbnQtbGNz
LmNvbTAeFw0xNjA1MzExMDM0MDhaFw0yNjA1MjkxMDM0MDhaMIGfMR8wHQYDVQQK
ExZTcGlyZW50IENvbW11bmljYXRpb25zMQwwCgYDVQQLEwNQQVcxIjAgBgkqhkiG
9w0BCQEWE3N1cHBvcnRAc3BpcmVudC5jb20xEjAQBgNVBAcTCUVhdG9udG93bjEL
MAkGA1UECBMCTkoxCzAJBgNVBAYTAlVTMRwwGgYDVQQDExN3d3cuc3BpcmVudC1s
Y3MuY29tMIIBIjANBgkqhkiG9w0BAQEFAAOCAQ8AMIIBCgKCAQEAu3BPjQxwbGMG
DAZ50XDvT4VnfDxMJfp7F1u6j/cGi0yoZ9KG6k9KLhLRcdkc/xocCX1EO7AJFCr6
YLijbhfsUZYIPgIKXZShwdFoCdTJdeMXwv9T7GybKSNokhz9wTiTIpeq/qAvH0yR
8h+ifLnoPnijKOOas4s7au25P15yEreR0FZ39hsCCJ2RFvhIcgudk8Nrb9ChgEpI
hAoIN1LRq6z212QW/yL4FV9TouCqNJQjqGaEl25kTPKR+IieJ6z4J6+kgA2D6xVB
zHlXga4aDHu/KWVMiLkoLNyCpa7/fxSxAqsPyPLzVBtQqDdvtHC7LIKbu+eytluI
B2j95X/i4QIDAQABMA0GCSqGSIb3DQEBBQUAA4IBAQBek1pdhqRA0vYGwL89NXL9
/T2jmN3vUtwjlacsjkEUH2n2YjxiG+S8dmfrUMaYpVS3yUxNN/Pd6rhn71oA10Os
ML180FmSYwtBuTJBfwfyK1gem2k13Se/h+mzf/ZOlr69hBrDH2fxhdCtwi9iHPO1
zj5Yl8/7vesrIyjmhwlT82BpG/ej/5Gh+cEKh1yllg5WhEraCiiDwYupxW21AWWQ
5YWL34qBkIE11HZs1BgwI8IK/xMcC9Pqoime34s5eosqx6Ojx7StO4EVHHSo0zVl
713G0D08kzdHDGNEZ53dbni4D+MzCt31F2Q0dGrIGdhxEZ2bncBRdI0OzC8T1bP5
-----END CERTIFICATE-----
Certificate:
    Data:
        Version: 1 (0x0)
        Serial Number:
            93:b3:94:02:7e:ce:31:f6
    Signature Algorithm: sha1WithRSAEncryption
        Issuer: O=Spirent Communications, OU=PAW/emailAddress=support@spirent.com, L=Eatontown, ST=NJ, C=US, CN=www.spirent-lcs.com
        Validity
            Not Before: May 31 10:34:08 2016 GMT
            Not After : May 29 10:34:08 2026 GMT
        Subject: O=Spirent Communications, OU=PAW/emailAddress=support@spirent.com, L=Eatontown, ST=NJ, C=US, CN=www.spirent-lcs.com
        Subject Public Key Info:
            Public Key Algorithm: rsaEncryption
                Public-Key: (2048 bit)
                Modulus:
                    00:bb:70:4f:8d:0c:70:6c:63:06:0c:06:79:d1:70:
                    ef:4f:85:67:7c:3c:4c:25:fa:7b:17:5b:ba:8f:f7:
                    06:8b:4c:a8:67:d2:86:ea:4f:4a:2e:12:d1:71:d9:
                    1c:ff:1a:1c:09:7d:44:3b:b0:09:14:2a:fa:60:b8:
                    a3:6e:17:ec:51:96:08:3e:02:0a:5d:94:a1:c1:d1:
                    68:09:d4:c9:75:e3:17:c2:ff:53:ec:6c:9b:29:23:
                    68:92:1c:fd:c1:38:93:22:97:aa:fe:a0:2f:1f:4c:
                    91:f2:1f:a2:7c:b9:e8:3e:78:a3:28:e3:9a:b3:8b:
                    3b:6a:ed:b9:3f:5e:72:12:b7:91:d0:56:77:f6:1b:
                    02:08:9d:91:16:f8:48:72:0b:9d:93:c3:6b:6f:d0:
                    a1:80:4a:48:84:0a:08:37:52:d1:ab:ac:f6:d7:64:
                    16:ff:22:f8:15:5f:53:a2:e0:aa:34:94:23:a8:66:
                    84:97:6e:64:4c:f2:91:f8:88:9e:27:ac:f8:27:af:
                    a4:80:0d:83:eb:15:41:cc:79:57:81:ae:1a:0c:7b:
                    bf:29:65:4c:88:b9:28:2c:dc:82:a5:ae:ff:7f:14:
                    b1:02:ab:0f:c8:f2:f3:54:1b:50:a8:37:6f:b4:70:
                    bb:2c:82:9b:bb:e7:b2:b6:5b:88:07:68:fd:e5:7f:
                    e2:e1
                Exponent: 65537 (0x10001)
    Signature Algorithm: sha1WithRSAEncryption
         5e:93:5a:5d:86:a4:40:d2:f6:06:c0:bf:3d:35:72:fd:fd:3d:
         a3:98:dd:ef:52:dc:23:95:a7:2c:8e:41:14:1f:69:f6:62:3c:
         62:1b:e4:bc:76:67:eb:50:c6:98:a5:54:b7:c9:4c:4d:37:f3:
         dd:ea:b8:67:ef:5a:00:d7:43:ac:30:bd:7c:d0:59:92:63:0b:
         41:b9:32:41:7f:07:f2:2b:58:1e:9b:69:35:dd:27:bf:87:e9:
         b3:7f:f6:4e:96:be:bd:84:1a:c3:1f:67:f1:85:d0:ad:c2:2f:
         62:1c:f3:b5:ce:3e:58:97:cf:fb:bd:eb:2b:23:28:e6:87:09:
         53:f3:60:69:1b:f7:a3:ff:91:a1:f9:c1:0a:87:5c:a5:96:0e:
         56:84:4a:da:0a:28:83:c1:8b:a9:c5:6d:b5:01:65:90:e5:85:
         8b:df:8a:81:90:81:35:d4:76:6c:d4:18:30:23:c2:0a:ff:13:
         1c:0b:d3:ea:a2:29:9e:df:8b:39:7a:8b:2a:c7:a3:a3:c7:b4:
         ad:3b:81:15:1c:74:a8:d3:35:65:ef:5d:c6:d0:3d:3c:93:37:
         47:0c:63:44:67:9d:dd:6e:78:b8:0f:e3:33:0a:dd:f5:17:64:
         34:74:6a:c8:19:d8:71:11:9d:9b:9d:c0:51:74:8d:0e:cc:2f:
         13:d5:b3:f9
SHA1 Fingerprint=7A:6D:8A:73:FF:90:5C:F2:CE:52:2D:C6:9B:6C:2A:C3:62:A7:66:B8
