-----BEGIN CERTIFICATE-----
MIICuTCCAiICCQC7tIbSMmskkTANBgkqhkiG9w0BAQsFADCBnzEfMB0GA1UEChMW
U3BpcmVudCBDb21tdW5pY2F0aW9uczEMMAoGA1UECxMDUEFXMSIwIAYJKoZIhvcN
AQkBFhNzdXBwb3J0QHNwaXJlbnQuY29tMRIwEAYDVQQHEwlFYXRvbnRvd24xCzAJ
BgNVBAgTAk5KMQswCQYDVQQGEwJVUzEcMBoGA1UEAxMTd3d3LnNwaXJlbnQtbGNz
LmNvbTAgFw0xNzAzMDMwOTQ4NTVaGA8yMTE3MDIwNzA5NDg1NVowgZ8xHzAdBgNV
BAoTFlNwaXJlbnQgQ29tbXVuaWNhdGlvbnMxDDAKBgNVBAsTA1BBVzEiMCAGCSqG
SIb3DQEJARYTc3VwcG9ydEBzcGlyZW50LmNvbTESMBAGA1UEBxMJRWF0b250b3du
MQswCQYDVQQIEwJOSjELMAkGA1UEBhMCVVMxHDAaBgNVBAMTE3d3dy5zcGlyZW50
LWxjcy5jb20wgZ8wDQYJKoZIhvcNAQEBBQADgY0AMIGJAoGBAK4GfVxdROwu7t3L
QqVR1yzVm940v7ST3Zrgye6LNXGlywHR0d5rvqk5gWpE2Ke2MR06m+4RE+oUjPX9
pqe5ecYH8pNOjN9JKDtwVbw18KQO+v4m4xJG9yhhyY6KceJxlra9G9tluMy0QiJw
TVFlk0Hih5cAJgUIphkT/WMqCL9DAgMBAAEwDQYJKoZIhvcNAQELBQADgYEAVjb7
phe2pskCRdtbmwbINSBjWQjlBGDsPzWLMlVS8uCIb0+zAaUnU8hySAEKjgCptlTu
+UUPWtQ2eJBXm7ojqZACnyaKOyGs7zubsS7kMmmWbvAvjAx5pSKO6O8Ni5CxO/B1
yH6nfJHZvUlV5n0jMG8va2rTH6JEPzeShts6cq8=
-----END CERTIFICATE-----
Certificate:
    Data:
        Version: 1 (0x0)
        Serial Number:
            bb:b4:86:d2:32:6b:24:91
    Signature Algorithm: sha256WithRSAEncryption
        Issuer: O=Spirent Communications, OU=PAW/emailAddress=support@spirent.com, L=Eatontown, ST=NJ, C=US, CN=www.spirent-lcs.com
        Validity
            Not Before: Mar  3 09:48:55 2017 GMT
            Not After : Feb  7 09:48:55 2117 GMT
        Subject: O=Spirent Communications, OU=PAW/emailAddress=support@spirent.com, L=Eatontown, ST=NJ, C=US, CN=www.spirent-lcs.com
        Subject Public Key Info:
            Public Key Algorithm: rsaEncryption
                Public-Key: (1024 bit)
                Modulus:
                    00:ae:06:7d:5c:5d:44:ec:2e:ee:dd:cb:42:a5:51:
                    d7:2c:d5:9b:de:34:bf:b4:93:dd:9a:e0:c9:ee:8b:
                    35:71:a5:cb:01:d1:d1:de:6b:be:a9:39:81:6a:44:
                    d8:a7:b6:31:1d:3a:9b:ee:11:13:ea:14:8c:f5:fd:
                    a6:a7:b9:79:c6:07:f2:93:4e:8c:df:49:28:3b:70:
                    55:bc:35:f0:a4:0e:fa:fe:26:e3:12:46:f7:28:61:
                    c9:8e:8a:71:e2:71:96:b6:bd:1b:db:65:b8:cc:b4:
                    42:22:70:4d:51:65:93:41:e2:87:97:00:26:05:08:
                    a6:19:13:fd:63:2a:08:bf:43
                Exponent: 65537 (0x10001)
    Signature Algorithm: sha256WithRSAEncryption
         56:36:fb:a6:17:b6:a6:c9:02:45:db:5b:9b:06:c8:35:20:63:
         59:08:e5:04:60:ec:3f:35:8b:32:55:52:f2:e0:88:6f:4f:b3:
         01:a5:27:53:c8:72:48:01:0a:8e:00:a9:b6:54:ee:f9:45:0f:
         5a:d4:36:78:90:57:9b:ba:23:a9:90:02:9f:26:8a:3b:21:ac:
         ef:3b:9b:b1:2e:e4:32:69:96:6e:f0:2f:8c:0c:79:a5:22:8e:
         e8:ef:0d:8b:90:b1:3b:f0:75:c8:7e:a7:7c:91:d9:bd:49:55:
         e6:7d:23:30:6f:2f:6b:6a:d3:1f:a2:44:3f:37:92:86:db:3a:
         72:af
SHA1 Fingerprint=22:C4:C2:8E:96:6A:73:66:34:4C:83:9D:84:70:06:10:27:18:0C:6F
