-----BEGIN CERTIFICATE-----
MIIFvjCCA6YCCQDbOn04awaNzTANBgkqhkiG9w0BAQsFADCBnzEfMB0GA1UEChMW
U3BpcmVudCBDb21tdW5pY2F0aW9uczEMMAoGA1UECxMDUEFXMSIwIAYJKoZIhvcN
AQkBFhNzdXBwb3J0QHNwaXJlbnQuY29tMRIwEAYDVQQHEwlFYXRvbnRvd24xCzAJ
BgNVBAgTAk5KMQswCQYDVQQGEwJVUzEcMBoGA1UEAxMTd3d3LnNwaXJlbnQtbGNz
LmNvbTAgFw0xNzAzMDMxMDMyNDRaGA8yMTE3MDIwNzEwMzI0NFowgZ8xHzAdBgNV
BAoTFlNwaXJlbnQgQ29tbXVuaWNhdGlvbnMxDDAKBgNVBAsTA1BBVzEiMCAGCSqG
SIb3DQEJARYTc3VwcG9ydEBzcGlyZW50LmNvbTESMBAGA1UEBxMJRWF0b250b3du
MQswCQYDVQQIEwJOSjELMAkGA1UEBhMCVVMxHDAaBgNVBAMTE3d3dy5zcGlyZW50
LWxjcy5jb20wggIiMA0GCSqGSIb3DQEBAQUAA4ICDwAwggIKAoICAQDRVtGoKdqC
4Ap+4E81E6UdLfGvVAbsceWUBo7p/NGGYKsqEcw4zDv10nNt2Fo0oibjMKcNM2+B
/VYDUgG91Q1kI5+YdM58t/cDwKnH/swsry3t72uPfmpwrVRYA69yHt5ZpcJJCaew
B0jIREsvOaRYn5O4/PLwgabkx3584gT2iHRfHGT6aFkLLA+g5G+0r3FOA8hjs/9v
ekhallmiZT1WsE10GGtDymWmAqYiDkdV8jr0ktZ9aSZd1oDwUjdUdKMvgu41F1i/
SF9m2XW0i2AS7784K/tihU6dryWiSH/ej/EZF8A8L7QZdZcUvd/bnCe9IrFaww7P
sz6vQo+m80M77A6bopcomfBRxpAY0vycvXHH4ZMJax1odwvjRdW8ps03x5HI5BEw
VxG+uB2zketvVvCqEcOxkjC7B9h9M4RZemKEVE3KOAzoX/OFHbs4UipArDtgjOyU
dXjo0ax9tkx3DQgP0mvN/ZSK/w7oWfC7tcPuE6IwqUXJmVQKd7ye8UW9LRzlOupV
C0zWXDRvizFRe28F4yw4/Mpe/t5pAouD6xwND668hl/gHC+pdc8tRhDDJGcmBw5d
n70s0Ub7JBoovA2rAKNGIivtAeJ3Mkuh3GrWuyhrn+c+44SNv4LZ/XzInyzG6PGc
Js0L3q1EuiKNXMKHkFl0uLsfzIRf1nIF4wIDAQABMA0GCSqGSIb3DQEBCwUAA4IC
AQDK124g4CQiMzByB7Clfh4+rmIgu6jOb0X/RC78IsYprA/WLIrLjluZ6ZBfhJRA
OQiUAa4ymO+wX9oOsNlX0wKDVawNa/Ody6NyV10YZ5Qe6tNzDDBZUHcWjHygVZYV
plXVk5toCIBZuTfXVo79kBgpd8+uAYZAlVk9IWTHXSJYBQZtyB8zACvtYnB8PGWq
S/bHMOucTwWGcU7VlS9jOuve6w9v7C5eeA7TrnYVFmFvcpo9HnKN1MlTEUEohvyA
r2chb0Gdy0y3TgrLc6srTKo2w/MJjwmFOsEyoVtf3hFGVRj9n54BPm/BHtmVSai6
W3BueYmuKMndAiBVmAsV+cjb6QC8npqv8a0fdp8YQheoZVm00C/Z4d+op7ZkD/mp
a9cOinJlkySHCdC0qQJlYC6LTx14/ElrjNtqm8lnjzKXcEQqeg3AjjEkPv0qDPO0
YJsOb0CtVEF1xzgPBPqK18PC3PncZVk0SDgQBdBZDSEhdvxQ/GD8OKGiJWbx+TrV
TWnW9unsZioAJMWKqyVkne3alJDwHzvOIgcjIrNN9u2mNnZckn2/tUwlUfD0Vsfg
LPFDk730TS6vRCzoLpn8wG+az55vxMcTOMpNwF+g+qa3RI1DYWAPCC0J8b0S5F+c
0URlNeKyhNx21bDL3dTV1kgoMcSCrxi6PvxYH1ekgUye1g==
-----END CERTIFICATE-----
Certificate:
    Data:
        Version: 1 (0x0)
        Serial Number:
            db:3a:7d:38:6b:06:8d:cd
    Signature Algorithm: sha256WithRSAEncryption
        Issuer: O=Spirent Communications, OU=PAW/emailAddress=support@spirent.com, L=Eatontown, ST=NJ, C=US, CN=www.spirent-lcs.com
        Validity
            Not Before: Mar  3 10:32:44 2017 GMT
            Not After : Feb  7 10:32:44 2117 GMT
        Subject: O=Spirent Communications, OU=PAW/emailAddress=support@spirent.com, L=Eatontown, ST=NJ, C=US, CN=www.spirent-lcs.com
        Subject Public Key Info:
            Public Key Algorithm: rsaEncryption
                Public-Key: (4096 bit)
                Modulus:
                    00:d1:56:d1:a8:29:da:82:e0:0a:7e:e0:4f:35:13:
                    a5:1d:2d:f1:af:54:06:ec:71:e5:94:06:8e:e9:fc:
                    d1:86:60:ab:2a:11:cc:38:cc:3b:f5:d2:73:6d:d8:
                    5a:34:a2:26:e3:30:a7:0d:33:6f:81:fd:56:03:52:
                    01:bd:d5:0d:64:23:9f:98:74:ce:7c:b7:f7:03:c0:
                    a9:c7:fe:cc:2c:af:2d:ed:ef:6b:8f:7e:6a:70:ad:
                    54:58:03:af:72:1e:de:59:a5:c2:49:09:a7:b0:07:
                    48:c8:44:4b:2f:39:a4:58:9f:93:b8:fc:f2:f0:81:
                    a6:e4:c7:7e:7c:e2:04:f6:88:74:5f:1c:64:fa:68:
                    59:0b:2c:0f:a0:e4:6f:b4:af:71:4e:03:c8:63:b3:
                    ff:6f:7a:48:5a:96:59:a2:65:3d:56:b0:4d:74:18:
                    6b:43:ca:65:a6:02:a6:22:0e:47:55:f2:3a:f4:92:
                    d6:7d:69:26:5d:d6:80:f0:52:37:54:74:a3:2f:82:
                    ee:35:17:58:bf:48:5f:66:d9:75:b4:8b:60:12:ef:
                    bf:38:2b:fb:62:85:4e:9d:af:25:a2:48:7f:de:8f:
                    f1:19:17:c0:3c:2f:b4:19:75:97:14:bd:df:db:9c:
                    27:bd:22:b1:5a:c3:0e:cf:b3:3e:af:42:8f:a6:f3:
                    43:3b:ec:0e:9b:a2:97:28:99:f0:51:c6:90:18:d2:
                    fc:9c:bd:71:c7:e1:93:09:6b:1d:68:77:0b:e3:45:
                    d5:bc:a6:cd:37:c7:91:c8:e4:11:30:57:11:be:b8:
                    1d:b3:91:eb:6f:56:f0:aa:11:c3:b1:92:30:bb:07:
                    d8:7d:33:84:59:7a:62:84:54:4d:ca:38:0c:e8:5f:
                    f3:85:1d:bb:38:52:2a:40:ac:3b:60:8c:ec:94:75:
                    78:e8:d1:ac:7d:b6:4c:77:0d:08:0f:d2:6b:cd:fd:
                    94:8a:ff:0e:e8:59:f0:bb:b5:c3:ee:13:a2:30:a9:
                    45:c9:99:54:0a:77:bc:9e:f1:45:bd:2d:1c:e5:3a:
                    ea:55:0b:4c:d6:5c:34:6f:8b:31:51:7b:6f:05:e3:
                    2c:38:fc:ca:5e:fe:de:69:02:8b:83:eb:1c:0d:0f:
                    ae:bc:86:5f:e0:1c:2f:a9:75:cf:2d:46:10:c3:24:
                    67:26:07:0e:5d:9f:bd:2c:d1:46:fb:24:1a:28:bc:
                    0d:ab:00:a3:46:22:2b:ed:01:e2:77:32:4b:a1:dc:
                    6a:d6:bb:28:6b:9f:e7:3e:e3:84:8d:bf:82:d9:fd:
                    7c:c8:9f:2c:c6:e8:f1:9c:26:cd:0b:de:ad:44:ba:
                    22:8d:5c:c2:87:90:59:74:b8:bb:1f:cc:84:5f:d6:
                    72:05:e3
                Exponent: 65537 (0x10001)
    Signature Algorithm: sha256WithRSAEncryption
         ca:d7:6e:20:e0:24:22:33:30:72:07:b0:a5:7e:1e:3e:ae:62:
         20:bb:a8:ce:6f:45:ff:44:2e:fc:22:c6:29:ac:0f:d6:2c:8a:
         cb:8e:5b:99:e9:90:5f:84:94:40:39:08:94:01:ae:32:98:ef:
         b0:5f:da:0e:b0:d9:57:d3:02:83:55:ac:0d:6b:f3:9d:cb:a3:
         72:57:5d:18:67:94:1e:ea:d3:73:0c:30:59:50:77:16:8c:7c:
         a0:55:96:15:a6:55:d5:93:9b:68:08:80:59:b9:37:d7:56:8e:
         fd:90:18:29:77:cf:ae:01:86:40:95:59:3d:21:64:c7:5d:22:
         58:05:06:6d:c8:1f:33:00:2b:ed:62:70:7c:3c:65:aa:4b:f6:
         c7:30:eb:9c:4f:05:86:71:4e:d5:95:2f:63:3a:eb:de:eb:0f:
         6f:ec:2e:5e:78:0e:d3:ae:76:15:16:61:6f:72:9a:3d:1e:72:
         8d:d4:c9:53:11:41:28:86:fc:80:af:67:21:6f:41:9d:cb:4c:
         b7:4e:0a:cb:73:ab:2b:4c:aa:36:c3:f3:09:8f:09:85:3a:c1:
         32:a1:5b:5f:de:11:46:55:18:fd:9f:9e:01:3e:6f:c1:1e:d9:
         95:49:a8:ba:5b:70:6e:79:89:ae:28:c9:dd:02:20:55:98:0b:
         15:f9:c8:db:e9:00:bc:9e:9a:af:f1:ad:1f:76:9f:18:42:17:
         a8:65:59:b4:d0:2f:d9:e1:df:a8:a7:b6:64:0f:f9:a9:6b:d7:
         0e:8a:72:65:93:24:87:09:d0:b4:a9:02:65:60:2e:8b:4f:1d:
         78:fc:49:6b:8c:db:6a:9b:c9:67:8f:32:97:70:44:2a:7a:0d:
         c0:8e:31:24:3e:fd:2a:0c:f3:b4:60:9b:0e:6f:40:ad:54:41:
         75:c7:38:0f:04:fa:8a:d7:c3:c2:dc:f9:dc:65:59:34:48:38:
         10:05:d0:59:0d:21:21:76:fc:50:fc:60:fc:38:a1:a2:25:66:
         f1:f9:3a:d5:4d:69:d6:f6:e9:ec:66:2a:00:24:c5:8a:ab:25:
         64:9d:ed:da:94:90:f0:1f:3b:ce:22:07:23:22:b3:4d:f6:ed:
         a6:36:76:5c:92:7d:bf:b5:4c:25:51:f0:f4:56:c7:e0:2c:f1:
         43:93:bd:f4:4d:2e:af:44:2c:e8:2e:99:fc:c0:6f:9a:cf:9e:
         6f:c4:c7:13:38:ca:4d:c0:5f:a0:fa:a6:b7:44:8d:43:61:60:
         0f:08:2d:09:f1:bd:12:e4:5f:9c:d1:44:65:35:e2:b2:84:dc:
         76:d5:b0:cb:dd:d4:d5:d6:48:28:31:c4:82:af:18:ba:3e:fc:
         58:1f:57:a4:81:4c:9e:d6
SHA1 Fingerprint=49:81:7E:84:C6:E6:FD:3A:16:2E:1D:C5:B6:F5:56:97:C5:64:8D:55
