-----BEGIN CERTIFICATE-----
MIICtzCCAiACCQCDLHF0XTXDZDANBgkqhkiG9w0BAQUFADCBnzEfMB0GA1UEChMW
U3BpcmVudCBDb21tdW5pY2F0aW9uczEMMAoGA1UECxMDUEFXMSIwIAYJKoZIhvcN
AQkBFhNzdXBwb3J0QHNwaXJlbnQuY29tMRIwEAYDVQQHEwlFYXRvbnRvd24xCzAJ
BgNVBAgTAk5KMQswCQYDVQQGEwJVUzEcMBoGA1UEAxMTd3d3LnNwaXJlbnQtbGNz
LmNvbTAeFw0xNTA1MjAwODM3MDZaFw0yNTA1MTcwODM3MDZaMIGfMR8wHQYDVQQK
ExZTcGlyZW50IENvbW11bmljYXRpb25zMQwwCgYDVQQLEwNQQVcxIjAgBgkqhkiG
9w0BCQEWE3N1cHBvcnRAc3BpcmVudC5jb20xEjAQBgNVBAcTCUVhdG9udG93bjEL
MAkGA1UECBMCTkoxCzAJBgNVBAYTAlVTMRwwGgYDVQQDExN3d3cuc3BpcmVudC1s
Y3MuY29tMIGfMA0GCSqGSIb3DQEBAQUAA4GNADCBiQKBgQC/9xvPjrwx4iw+JE11
scEEP+MlE7yvZHrPO1aiNAMB8Q6WCgz9ZN0+5pjvT2EOnXYAJ6WsaAWwgD8yXxyi
9SjmtOg7OcnXbHCaq6xgIM/elXrUge+TnkrBoUxNO0kgUY1BE1tBmBBFgQmVKvjf
Gbrx/HZJEbukq+148jSkWeTrswIDAQABMA0GCSqGSIb3DQEBBQUAA4GBAEI1ilmt
DZkI8QxaqX5NzDijPcqRRCO57ULUiq50V0tXS6DfIiBugeGw/gAJrxo6LDrszuCo
EWTjNJZhCTZz4075B1IQ7VF1fYL1J3XLQsJR8ydFxDisan2tfdbFpUi5W/CnOO4U
BN7o06HM4J4ysC1GB4a+WU7MpngJl7YXblRp
-----END CERTIFICATE-----
Certificate:
    Data:
        Version: 1 (0x0)
        Serial Number:
            83:2c:71:74:5d:35:c3:64
    Signature Algorithm: sha1WithRSAEncryption
        Issuer: O=Spirent Communications, OU=PAW/emailAddress=support@spirent.com, L=Eatontown, ST=NJ, C=US, CN=www.spirent-lcs.com
        Validity
            Not Before: May 20 08:37:06 2015 GMT
            Not After : May 17 08:37:06 2025 GMT
        Subject: O=Spirent Communications, OU=PAW/emailAddress=support@spirent.com, L=Eatontown, ST=NJ, C=US, CN=www.spirent-lcs.com
        Subject Public Key Info:
            Public Key Algorithm: rsaEncryption
                Public-Key: (1024 bit)
                Modulus:
                    00:bf:f7:1b:cf:8e:bc:31:e2:2c:3e:24:4d:75:b1:
                    c1:04:3f:e3:25:13:bc:af:64:7a:cf:3b:56:a2:34:
                    03:01:f1:0e:96:0a:0c:fd:64:dd:3e:e6:98:ef:4f:
                    61:0e:9d:76:00:27:a5:ac:68:05:b0:80:3f:32:5f:
                    1c:a2:f5:28:e6:b4:e8:3b:39:c9:d7:6c:70:9a:ab:
                    ac:60:20:cf:de:95:7a:d4:81:ef:93:9e:4a:c1:a1:
                    4c:4d:3b:49:20:51:8d:41:13:5b:41:98:10:45:81:
                    09:95:2a:f8:df:19:ba:f1:fc:76:49:11:bb:a4:ab:
                    ed:78:f2:34:a4:59:e4:eb:b3
                Exponent: 65537 (0x10001)
    Signature Algorithm: sha1WithRSAEncryption
         42:35:8a:59:ad:0d:99:08:f1:0c:5a:a9:7e:4d:cc:38:a3:3d:
         ca:91:44:23:b9:ed:42:d4:8a:ae:74:57:4b:57:4b:a0:df:22:
         20:6e:81:e1:b0:fe:00:09:af:1a:3a:2c:3a:ec:ce:e0:a8:11:
         64:e3:34:96:61:09:36:73:e3:4e:f9:07:52:10:ed:51:75:7d:
         82:f5:27:75:cb:42:c2:51:f3:27:45:c4:38:ac:6a:7d:ad:7d:
         d6:c5:a5:48:b9:5b:f0:a7:38:ee:14:04:de:e8:d3:a1:cc:e0:
         9e:32:b0:2d:46:07:86:be:59:4e:cc:a6:78:09:97:b6:17:6e:
         54:69
SHA1 Fingerprint=19:A3:30:2D:04:6A:1C:0A:E0:79:8D:BF:E1:C8:BE:F7:07:2E:11:D5
