-----BEGIN CERTIFICATE-----
MIIC5zCCAlCgAwIBAgIEPhLkEjANBgkqhkiG9w0BAQQFADCBrTEoMCYGCSqGSIb3
DQEJARYZc3VwcG9ydEByb2hkZS1zY2h3YXJ6LmNvbTELMAkGA1UEBhMCREUxETAP
BgNVBAgMCEJhdmFyaWFuMQ8wDQYDVQQHDAZNdW5pY2gxDDAKBgNVBAoMA1ImUzEQ
MA4GA1UECwwHUiZTIEFURTEwMC4GA1UEAwwnaC1zbHAubW5jMDAxLm1jYzAwMS5w
dWIuM2dwcG5ldHdvcmsub3JnMB4XDTAzMDEwMTEyNTAyNloXDTI3MTIyNjEyNTAy
Nlowga0xKDAmBgkqhkiG9w0BCQEWGXN1cHBvcnRAcm9oZGUtc2Nod2Fyei5jb20x
CzAJBgNVBAYTAkRFMREwDwYDVQQIDAhCYXZhcmlhbjEPMA0GA1UEBwwGTXVuaWNo
MQwwCgYDVQQKDANSJlMxEDAOBgNVBAsMB1ImUyBBVEUxMDAuBgNVBAMMJ2gtc2xw
Lm1uYzAwMS5tY2MwMDEucHViLjNncHBuZXR3b3JrLm9yZzCBnzANBgkqhkiG9w0B
AQEFAAOBjQAwgYkCgYEA5NH4/aSXbcFsKOlPcvBtswB0flDOYZItOrn+mdreNWFS
crg3O7JJYiI/TrdeJiXR5VPwGxJ4GBUjZj3fA2mng7gJYD3Ox4AkkmzAB7HCwvUo
WggUBhMjNmDDbMnEDelz8NiAZubNfNu28pTcB3SZOhWX3geZ0hipmkvVwerEF5UC
AwEAAaMSMBAwDgYDVR0PAQH/BAQDAgSwMA0GCSqGSIb3DQEBBAUAA4GBAHfRtirz
R66aOgpyu8RJkyKyZg4TzOZtlKBxIkkO30Q92iZf/pocfvKW2lSWhWo9jgMbhVAe
KI4tuFf5JQMI6G01gJt4+66tYPnUBXHWg+MnBNNqmoMJUHDT4+kxRY7hM7bpvXD9
tyV79vCitUjjqHwoINcK1WPOt13efou5YiZn
-----END CERTIFICATE-----
Certificate:
    Data:
        Version: 3 (0x2)
        Serial Number: 1041425426 (0x3e12e412)
    Signature Algorithm: md5WithRSAEncryption
        Issuer: emailAddress=support@rohde-schwarz.com, C=DE, ST=Bavarian, L=Munich, O=R&S, OU=R&S ATE, CN=h-slp.mnc001.mcc001.pub.3gppnetwork.org
        Validity
            Not Before: Jan  1 12:50:26 2003 GMT
            Not After : Dec 26 12:50:26 2027 GMT
        Subject: emailAddress=support@rohde-schwarz.com, C=DE, ST=Bavarian, L=Munich, O=R&S, OU=R&S ATE, CN=h-slp.mnc001.mcc001.pub.3gppnetwork.org
        Subject Public Key Info:
            Public Key Algorithm: rsaEncryption
                Public-Key: (1024 bit)
                Modulus:
                    00:e4:d1:f8:fd:a4:97:6d:c1:6c:28:e9:4f:72:f0:
                    6d:b3:00:74:7e:50:ce:61:92:2d:3a:b9:fe:99:da:
                    de:35:61:52:72:b8:37:3b:b2:49:62:22:3f:4e:b7:
                    5e:26:25:d1:e5:53:f0:1b:12:78:18:15:23:66:3d:
                    df:03:69:a7:83:b8:09:60:3d:ce:c7:80:24:92:6c:
                    c0:07:b1:c2:c2:f5:28:5a:08:14:06:13:23:36:60:
                    c3:6c:c9:c4:0d:e9:73:f0:d8:80:66:e6:cd:7c:db:
                    b6:f2:94:dc:07:74:99:3a:15:97:de:07:99:d2:18:
                    a9:9a:4b:d5:c1:ea:c4:17:95
                Exponent: 65537 (0x10001)
        X509v3 extensions:
            X509v3 Key Usage: critical
                Digital Signature, Key Encipherment, Data Encipherment
    Signature Algorithm: md5WithRSAEncryption
         77:d1:b6:2a:f3:47:ae:9a:3a:0a:72:bb:c4:49:93:22:b2:66:
         0e:13:cc:e6:6d:94:a0:71:22:49:0e:df:44:3d:da:26:5f:fe:
         9a:1c:7e:f2:96:da:54:96:85:6a:3d:8e:03:1b:85:50:1e:28:
         8e:2d:b8:57:f9:25:03:08:e8:6d:35:80:9b:78:fb:ae:ad:60:
         f9:d4:05:71:d6:83:e3:27:04:d3:6a:9a:83:09:50:70:d3:e3:
         e9:31:45:8e:e1:33:b6:e9:bd:70:fd:b7:25:7b:f6:f0:a2:b5:
         48:e3:a8:7c:28:20:d7:0a:d5:63:ce:b7:5d:de:7e:8b:b9:62:
         26:67
SHA1 Fingerprint=70:44:DD:F3:0C:74:4F:1B:1E:B8:53:00:46:F4:BE:51:97:91:EC:DF
