-----BEGIN CERTIFICATE-----
MIIFgjCCA2qgAwIBAgIQXfAZDd+9XJpFa1GJ2eqreDANBgkqhkiG9w0BAQsFADAV
MRMwEQYDVQQDEwpFR0FEUm9vdENBMB4XDTE4MDIwOTE1MzMyM1oXDTM4MDIwOTE1
NDAwMlowFTETMBEGA1UEAxMKRUdBRFJvb3RDQTCCAiIwDQYJKoZIhvcNAQEBBQAD
ggIPADCCAgoCggIBAM5hqGswhA9sZstmTwCCp18z7Y+OSUGzFSrJ/ocI4h9UsusA
40yOvmt4XnNxb6oGFsEOE+8eHzaCE00TlwS9nLGq6x+cj8nDuLYI66KEimR1xdkt
3mwJbSZ/4tuulgvyUcARB+xcRSsyLWraboxFa41VY6yCeBfs4FKyrkmGmhFxzknN
jKQQRkfRQz3wyggWebSa1Aa2DZdMa0BSn+ZnFcMyhOamLxj5RVvTLwuoqhSCfVU5
QW5ioLQ85DFg4667VClP+gDQ0F2XoLBmUPDmSXrlHZ3x+yA+ls0rdh79N84dq9hU
2Y3zApqyohjeFCj9F0DiGMRwQ8cj9PhMHp9mCreuS6ZMXk5Phqil5gyyf1Blqg9Y
21JWUoag+CKFlTbL6yRRauhbLCFTxZxpc6noG0B5fXTEftIl040jQ0XFcx6BOBru
DESkdhCuT4LZw4tOU79v5OVxLAcZOWsC+l/gt2gRRToz3HFFR4R7vDzVJKom5d22
dwy7v17kVcIsbMNndJMELz8UXK7tbHioBNnW8Sp7sRFrxz/lPzUF6eJFucgrpnng
n8xBoiBbZOWu7EFttTOE2pKpPPGFbl+c0EbyUa71RxidRsBKjy3aTDwT967q1h/v
uZDecSQH3JDPqH66MvP31YvLOLxSczWYYLC0+R23SslEgRFOxmtF4YODM4KPAgMB
AAGjgc0wgcowCwYDVR0PBAQDAgGGMA8GA1UdEwEB/wQFMAMBAf8wHQYDVR0OBBYE
FFZFQloUqLksRP6bNcTb7i85gk3QMBAGCSsGAQQBgjcVAQQDAgEAMHkGA1UdIARy
MHAwbgYEVR0gADBmMGQGCCsGAQUFBwICMFgeVgBUAGgAaQBzACAAUABLAEkAIABp
AHMAIABpAG4AdABlAG4AZABlAGQAIABmAG8AcgAgAGkAbgB0AGUAcgBuAGEAbAAg
AHUAcwBlACAAbwBuAGwAeQAuMA0GCSqGSIb3DQEBCwUAA4ICAQBiBuc9JLpv0+nx
eY5Np7X0HPODG4AdPepVpwh/JUh07G8eClq6ZFoejjiIGpLvMN+Lhfg8Q+hoh7Yb
z2Gf96TpyAsjx4lmqIgDNfBdf7G0wDf+irP6pifCPBzu2T5519WztvaiZfQoPEz+
CXm3/yiSKBQUx705fPctx91TjkQEbiBFU3hN9bmw5VkM+2HN7eDJUIUVNXXaTec0
6M1RhLB2vLVinACpamylLIzShLZpDyk1VI2tniyia+sJulDdpu6kY3LuMr7s97Gj
UqFHn3PO8lXwYqueJ5xeOjMIKzaliw5n58mDYzpt1uu0u9i0w/8nJpGl4iYwcgBn
ZPmKet3KG+9LIh/JUdR2KMFv706E4Z24B/QCjbRFqjzS4BDXKmcZV84/HwA48hwa
yUTWsWZXIibEmvyQcZo9+943o3jkiFYDZZfmQ2a2bzvcHsrNa4ptJYWaBEm2NQWa
F6pPdUr9uerqyOjRHPkPyd711P7gYC6MWlEKi9JME6lbvanFOwwwh+4nhNnk1iw8
335Q2U+S8WCzPo7Mzn2DGfa6bdO6sOChXgM//QbaL9GH0LYO8O6XWfS0HSztnBFB
etCUFffhDdzPkIxfmd7ylGgZSbls2+KFjIgF2M9gKkglmzf5qjNhA1jjHiaUyRTZ
tRq4ImVO9Ddg1VngqJRZvro+zlH3pQ==
-----END CERTIFICATE-----
Certificate:
    Data:
        Version: 3 (0x2)
        Serial Number:
            5d:f0:19:0d:df:bd:5c:9a:45:6b:51:89:d9:ea:ab:78
    Signature Algorithm: sha256WithRSAEncryption
        Issuer: CN=EGADRootCA
        Validity
            Not Before: Feb  9 15:33:23 2018 GMT
            Not After : Feb  9 15:40:02 2038 GMT
        Subject: CN=EGADRootCA
        Subject Public Key Info:
            Public Key Algorithm: rsaEncryption
                Public-Key: (4096 bit)
                Modulus:
                    00:ce:61:a8:6b:30:84:0f:6c:66:cb:66:4f:00:82:
                    a7:5f:33:ed:8f:8e:49:41:b3:15:2a:c9:fe:87:08:
                    e2:1f:54:b2:eb:00:e3:4c:8e:be:6b:78:5e:73:71:
                    6f:aa:06:16:c1:0e:13:ef:1e:1f:36:82:13:4d:13:
                    97:04:bd:9c:b1:aa:eb:1f:9c:8f:c9:c3:b8:b6:08:
                    eb:a2:84:8a:64:75:c5:d9:2d:de:6c:09:6d:26:7f:
                    e2:db:ae:96:0b:f2:51:c0:11:07:ec:5c:45:2b:32:
                    2d:6a:da:6e:8c:45:6b:8d:55:63:ac:82:78:17:ec:
                    e0:52:b2:ae:49:86:9a:11:71:ce:49:cd:8c:a4:10:
                    46:47:d1:43:3d:f0:ca:08:16:79:b4:9a:d4:06:b6:
                    0d:97:4c:6b:40:52:9f:e6:67:15:c3:32:84:e6:a6:
                    2f:18:f9:45:5b:d3:2f:0b:a8:aa:14:82:7d:55:39:
                    41:6e:62:a0:b4:3c:e4:31:60:e3:ae:bb:54:29:4f:
                    fa:00:d0:d0:5d:97:a0:b0:66:50:f0:e6:49:7a:e5:
                    1d:9d:f1:fb:20:3e:96:cd:2b:76:1e:fd:37:ce:1d:
                    ab:d8:54:d9:8d:f3:02:9a:b2:a2:18:de:14:28:fd:
                    17:40:e2:18:c4:70:43:c7:23:f4:f8:4c:1e:9f:66:
                    0a:b7:ae:4b:a6:4c:5e:4e:4f:86:a8:a5:e6:0c:b2:
                    7f:50:65:aa:0f:58:db:52:56:52:86:a0:f8:22:85:
                    95:36:cb:eb:24:51:6a:e8:5b:2c:21:53:c5:9c:69:
                    73:a9:e8:1b:40:79:7d:74:c4:7e:d2:25:d3:8d:23:
                    43:45:c5:73:1e:81:38:1a:ee:0c:44:a4:76:10:ae:
                    4f:82:d9:c3:8b:4e:53:bf:6f:e4:e5:71:2c:07:19:
                    39:6b:02:fa:5f:e0:b7:68:11:45:3a:33:dc:71:45:
                    47:84:7b:bc:3c:d5:24:aa:26:e5:dd:b6:77:0c:bb:
                    bf:5e:e4:55:c2:2c:6c:c3:67:74:93:04:2f:3f:14:
                    5c:ae:ed:6c:78:a8:04:d9:d6:f1:2a:7b:b1:11:6b:
                    c7:3f:e5:3f:35:05:e9:e2:45:b9:c8:2b:a6:79:e0:
                    9f:cc:41:a2:20:5b:64:e5:ae:ec:41:6d:b5:33:84:
                    da:92:a9:3c:f1:85:6e:5f:9c:d0:46:f2:51:ae:f5:
                    47:18:9d:46:c0:4a:8f:2d:da:4c:3c:13:f7:ae:ea:
                    d6:1f:ef:b9:90:de:71:24:07:dc:90:cf:a8:7e:ba:
                    32:f3:f7:d5:8b:cb:38:bc:52:73:35:98:60:b0:b4:
                    f9:1d:b7:4a:c9:44:81:11:4e:c6:6b:45:e1:83:83:
                    33:82:8f
                Exponent: 65537 (0x10001)
        X509v3 extensions:
            X509v3 Key Usage:
                Digital Signature, Certificate Sign, CRL Sign
            X509v3 Basic Constraints: critical
                CA:TRUE
            X509v3 Subject Key Identifier:
                56:45:42:5A:14:A8:B9:2C:44:FE:9B:35:C4:DB:EE:2F:39:82:4D:D0
            1.3.6.1.4.1.311.21.1:
                ...
            X509v3 Certificate Policies:
                Policy: X509v3 Any Policy
                  User Notice:
                    Explicit Text:

    Signature Algorithm: sha256WithRSAEncryption
         62:06:e7:3d:24:ba:6f:d3:e9:f1:79:8e:4d:a7:b5:f4:1c:f3:
         83:1b:80:1d:3d:ea:55:a7:08:7f:25:48:74:ec:6f:1e:0a:5a:
         ba:64:5a:1e:8e:38:88:1a:92:ef:30:df:8b:85:f8:3c:43:e8:
         68:87:b6:1b:cf:61:9f:f7:a4:e9:c8:0b:23:c7:89:66:a8:88:
         03:35:f0:5d:7f:b1:b4:c0:37:fe:8a:b3:fa:a6:27:c2:3c:1c:
         ee:d9:3e:79:d7:d5:b3:b6:f6:a2:65:f4:28:3c:4c:fe:09:79:
         b7:ff:28:92:28:14:14:c7:bd:39:7c:f7:2d:c7:dd:53:8e:44:
         04:6e:20:45:53:78:4d:f5:b9:b0:e5:59:0c:fb:61:cd:ed:e0:
         c9:50:85:15:35:75:da:4d:e7:34:e8:cd:51:84:b0:76:bc:b5:
         62:9c:00:a9:6a:6c:a5:2c:8c:d2:84:b6:69:0f:29:35:54:8d:
         ad:9e:2c:a2:6b:eb:09:ba:50:dd:a6:ee:a4:63:72:ee:32:be:
         ec:f7:b1:a3:52:a1:47:9f:73:ce:f2:55:f0:62:ab:9e:27:9c:
         5e:3a:33:08:2b:36:a5:8b:0e:67:e7:c9:83:63:3a:6d:d6:eb:
         b4:bb:d8:b4:c3:ff:27:26:91:a5:e2:26:30:72:00:67:64:f9:
         8a:7a:dd:ca:1b:ef:4b:22:1f:c9:51:d4:76:28:c1:6f:ef:4e:
         84:e1:9d:b8:07:f4:02:8d:b4:45:aa:3c:d2:e0:10:d7:2a:67:
         19:57:ce:3f:1f:00:38:f2:1c:1a:c9:44:d6:b1:66:57:22:26:
         c4:9a:fc:90:71:9a:3d:fb:de:37:a3:78:e4:88:56:03:65:97:
         e6:43:66:b6:6f:3b:dc:1e:ca:cd:6b:8a:6d:25:85:9a:04:49:
         b6:35:05:9a:17:aa:4f:75:4a:fd:b9:ea:ea:c8:e8:d1:1c:f9:
         0f:c9:de:f5:d4:fe:e0:60:2e:8c:5a:51:0a:8b:d2:4c:13:a9:
         5b:bd:a9:c5:3b:0c:30:87:ee:27:84:d9:e4:d6:2c:3c:df:7e:
         50:d9:4f:92:f1:60:b3:3e:8e:cc:ce:7d:83:19:f6:ba:6d:d3:
         ba:b0:e0:a1:5e:03:3f:fd:06:da:2f:d1:87:d0:b6:0e:f0:ee:
         97:59:f4:b4:1d:2c:ed:9c:11:41:7a:d0:94:15:f7:e1:0d:dc:
         cf:90:8c:5f:99:de:f2:94:68:19:49:b9:6c:db:e2:85:8c:88:
         05:d8:cf:60:2a:48:25:9b:37:f9:aa:33:61:03:58:e3:1e:26:
         94:c9:14:d9:b5:1a:b8:22:65:4e:f4:37:60:d5:59:e0:a8:94:
         59:be:ba:3e:ce:51:f7:a5
SHA1 Fingerprint=41:75:B2:FA:06:E3:40:0B:60:9D:02:55:16:C7:89:FB:8E:FA:A5:F4
