-----BEGIN CERTIFICATE-----
MIICzjCCAjegAwIBAgIJAJSPXrpHroFUMA0GCSqGSIb3DQEBBQUAME8xEDAOBgNV
BAoTB1NwaXJlbnQxDTALBgNVBAsTBFBBV1AxEjAQBgNVBAcTCUVhdG9udG93bjEL
MAkGA1UECBMCTkoxCzAJBgNVBAYTAlVTMB4XDTExMDIwNDIzNDcyMFoXDTIxMDIw
MTIzNDcyMFowTzEQMA4GA1UEChMHU3BpcmVudDENMAsGA1UECxMEUEFXUDESMBAG
A1UEBxMJRWF0b250b3duMQswCQYDVQQIEwJOSjELMAkGA1UEBhMCVVMwgZ8wDQYJ
KoZIhvcNAQEBBQADgY0AMIGJAoGBANFIX5YtfzevR7jxitqQVVvdjkkN28vQzFKx
N2rp6Cuqg6c2YQP6VqN51ZC+7R6eTO9KAuvlYcfhE2ux6hDyI01wkkO3erMZARuQ
ZQ1sRWvM3xKI0l9Ti8W330U29DDw93mmpduRkclnggIpR/Txo3F07up2t4VHbC1k
ibmcmhN1AgMBAAGjgbEwga4wDAYDVR0TBAUwAwEB/zAdBgNVHQ4EFgQUbviGjBjo
DXOC6hcaqWKKfOpX8Z4wfwYDVR0jBHgwdoAUbviGjBjoDXOC6hcaqWKKfOpX8Z6h
U6RRME8xEDAOBgNVBAoTB1NwaXJlbnQxDTALBgNVBAsTBFBBV1AxEjAQBgNVBAcT
CUVhdG9udG93bjELMAkGA1UECBMCTkoxCzAJBgNVBAYTAlVTggkAlI9eukeugVQw
DQYJKoZIhvcNAQEFBQADgYEASPCO8YOKV34K5lpccUGa9P8i1uaqJ2FMjhNtcC+7
djn3gP0IfdWhrRCoxfQPuT7/MEtLshAMvzjp0ljbPR0816iU68dTsgYDgyelRV5G
SjSkumTq7e70p55HoBLzWhFAazzs/h/nyJFqJLnlLnyFlEGHXLAezfofM0sx5CaW
5OY=
-----END CERTIFICATE-----
Certificate:
    Data:
        Version: 3 (0x2)
        Serial Number:
            94:8f:5e:ba:47:ae:81:54
    Signature Algorithm: sha1WithRSAEncryption
        Issuer: O=Spirent, OU=PAWP, L=Eatontown, ST=NJ, C=US
        Validity
            Not Before: Feb  4 23:47:20 2011 GMT
            Not After : Feb  1 23:47:20 2021 GMT
        Subject: O=Spirent, OU=PAWP, L=Eatontown, ST=NJ, C=US
        Subject Public Key Info:
            Public Key Algorithm: rsaEncryption
                Public-Key: (1024 bit)
                Modulus:
                    00:d1:48:5f:96:2d:7f:37:af:47:b8:f1:8a:da:90:
                    55:5b:dd:8e:49:0d:db:cb:d0:cc:52:b1:37:6a:e9:
                    e8:2b:aa:83:a7:36:61:03:fa:56:a3:79:d5:90:be:
                    ed:1e:9e:4c:ef:4a:02:eb:e5:61:c7:e1:13:6b:b1:
                    ea:10:f2:23:4d:70:92:43:b7:7a:b3:19:01:1b:90:
                    65:0d:6c:45:6b:cc:df:12:88:d2:5f:53:8b:c5:b7:
                    df:45:36:f4:30:f0:f7:79:a6:a5:db:91:91:c9:67:
                    82:02:29:47:f4:f1:a3:71:74:ee:ea:76:b7:85:47:
                    6c:2d:64:89:b9:9c:9a:13:75
                Exponent: 65537 (0x10001)
        X509v3 extensions:
            X509v3 Basic Constraints:
                CA:TRUE
            X509v3 Subject Key Identifier:
                6E:F8:86:8C:18:E8:0D:73:82:EA:17:1A:A9:62:8A:7C:EA:57:F1:9E
            X509v3 Authority Key Identifier:
                keyid:6E:F8:86:8C:18:E8:0D:73:82:EA:17:1A:A9:62:8A:7C:EA:57:F1:9E
                DirName:/O=Spirent/OU=PAWP/L=Eatontown/ST=NJ/C=US
                serial:94:8F:5E:BA:47:AE:81:54

    Signature Algorithm: sha1WithRSAEncryption
         48:f0:8e:f1:83:8a:57:7e:0a:e6:5a:5c:71:41:9a:f4:ff:22:
         d6:e6:aa:27:61:4c:8e:13:6d:70:2f:bb:76:39:f7:80:fd:08:
         7d:d5:a1:ad:10:a8:c5:f4:0f:b9:3e:ff:30:4b:4b:b2:10:0c:
         bf:38:e9:d2:58:db:3d:1d:3c:d7:a8:94:eb:c7:53:b2:06:03:
         83:27:a5:45:5e:46:4a:34:a4:ba:64:ea:ed:ee:f4:a7:9e:47:
         a0:12:f3:5a:11:40:6b:3c:ec:fe:1f:e7:c8:91:6a:24:b9:e5:
         2e:7c:85:94:41:87:5c:b0:1e:cd:fa:1f:33:4b:31:e4:26:96:
         e4:e6
SHA1 Fingerprint=A5:7F:0C:80:31:10:AC:67:AE:CF:5A:DA:E4:E4:E3:A7:66:8A:A5:9E
