-----BEGIN CERTIFICATE-----
MIICOjCCAeQCCQClcmEx/0u9TzANBgkqhkiG9w0BAQsFADCBojEfMB0GA1UEChMW
U3BpcmVudCBDb21tdW5pY2F0aW9uczEMMAoGA1UECxMDUEFXMSIwIAYJKoZIhvcN
AQkBFhNzdXBwb3J0QHNwaXJlbnQuY29tMRIwEAYDVQQHEwlFYXRvbnRvd24xCzAJ
BgNVBAgTAk5KMQswCQYDVQQGEwJVUzEfMB0GA1UEAxMWU3BpcmVudCBDb21tdW5p
Y2F0aW9uczAgFw0xNzAxMjMwOTA3NDNaGA8yMTE2MTIzMDA5MDc0M1owgaIxHzAd
BgNVBAoTFlNwaXJlbnQgQ29tbXVuaWNhdGlvbnMxDDAKBgNVBAsTA1BBVzEiMCAG
CSqGSIb3DQEJARYTc3VwcG9ydEBzcGlyZW50LmNvbTESMBAGA1UEBxMJRWF0b250
b3duMQswCQYDVQQIEwJOSjELMAkGA1UEBhMCVVMxHzAdBgNVBAMTFlNwaXJlbnQg
Q29tbXVuaWNhdGlvbnMwXDANBgkqhkiG9w0BAQEFAANLADBIAkEAwd1d4rRb9Z73
v+UXFGzkiKXHMdFdiqL/r7hmyNt3j2yfslXwRGQA0QV6uBXfnUWkKTXPeUQNEpz+
qXc20L0suQIDAQABMA0GCSqGSIb3DQEBCwUAA0EAhUEbXeKl0D4kny2DMc+xiByx
cy8rn68mOpkp/mmRYFgeT/Ez4bViUz3PV3kptwTF/NOaDL2BTCIiDzzMs9dCxA==
-----END CERTIFICATE-----
Certificate:
    Data:
        Version: 1 (0x0)
        Serial Number:
            a5:72:61:31:ff:4b:bd:4f
    Signature Algorithm: sha256WithRSAEncryption
        Issuer: O=Spirent Communications, OU=PAW/emailAddress=support@spirent.com, L=Eatontown, ST=NJ, C=US, CN=Spirent Communications
        Validity
            Not Before: Jan 23 09:07:43 2017 GMT
            Not After : Dec 30 09:07:43 2116 GMT
        Subject: O=Spirent Communications, OU=PAW/emailAddress=support@spirent.com, L=Eatontown, ST=NJ, C=US, CN=Spirent Communications
        Subject Public Key Info:
            Public Key Algorithm: rsaEncryption
                Public-Key: (512 bit)
                Modulus:
                    00:c1:dd:5d:e2:b4:5b:f5:9e:f7:bf:e5:17:14:6c:
                    e4:88:a5:c7:31:d1:5d:8a:a2:ff:af:b8:66:c8:db:
                    77:8f:6c:9f:b2:55:f0:44:64:00:d1:05:7a:b8:15:
                    df:9d:45:a4:29:35:cf:79:44:0d:12:9c:fe:a9:77:
                    36:d0:bd:2c:b9
                Exponent: 65537 (0x10001)
    Signature Algorithm: sha256WithRSAEncryption
         85:41:1b:5d:e2:a5:d0:3e:24:9f:2d:83:31:cf:b1:88:1c:b1:
         73:2f:2b:9f:af:26:3a:99:29:fe:69:91:60:58:1e:4f:f1:33:
         e1:b5:62:53:3d:cf:57:79:29:b7:04:c5:fc:d3:9a:0c:bd:81:
         4c:22:22:0f:3c:cc:b3:d7:42:c4
SHA1 Fingerprint=CC:1E:10:F1:11:85:A9:FC:E6:6C:16:5E:42:9D:C1:1F:B3:25:32:A9
