-----BEGIN CERTIFICATE-----
MIICkjCCAfsCBD4S3EQwDQYJKoZIhvcNAQEEBQAwgY8xKDAmBgkqhkiG9w0BCQEW
GXN1cHBvcnRAcm9oZGUtc2Nod2Fyei5jb20xCzAJBgNVBAYTAkRFMREwDwYDVQQI
DAhCYXZhcmlhbjEPMA0GA1UEBwwGTXVuaWNoMQwwCgYDVQQKDANSJlMxEDAOBgNV
BAsMB1ImUyBBVEUxEjAQBgNVBAMMCXNscC5ycy5kZTAeFw0wMzAxMDExMjE3MDha
Fw0yNzEyMjYxMjE3MDhaMIGPMSgwJgYJKoZIhvcNAQkBFhlzdXBwb3J0QHJvaGRl
LXNjaHdhcnouY29tMQswCQYDVQQGEwJERTERMA8GA1UECAwIQmF2YXJpYW4xDzAN
BgNVBAcMBk11bmljaDEMMAoGA1UECgwDUiZTMRAwDgYDVQQLDAdSJlMgQVRFMRIw
EAYDVQQDDAlzbHAucnMuZGUwgZ8wDQYJKoZIhvcNAQEBBQADgY0AMIGJAoGBAJyn
kTj84x8KPxnX3vJQ7/g/AMTPX4OnoRUFt6feusB9tlzD6jt4q3Fd7Exjmm45KwLe
PGIz91JbghwN9XG520+E+8yA8a7QPDU4w9TQFA4m9adwJFAPRW+uoAn+Uw89Xzzz
8usgkcZFtFNPJ2dzijDQUdv7EWPogBVRPRBvWfuVAgMBAAEwDQYJKoZIhvcNAQEE
BQADgYEAaQEoxHPEFMQYunxCvORyxaUDJMjzWF+U8aRZvRGZ3t0NeosCGliOG3GG
0Uk4MnpmkInLFr/UXn+2q772+L5iIfmwhkprFLS7np09fueEsNMpvZlz3ze/sNfV
qYztfwkrbgXowvSoSAvWvZiZ7rFy+0AJ0MisUGB4M3JKw6tgOKY=
-----END CERTIFICATE-----
Certificate:
    Data:
        Version: 1 (0x0)
        Serial Number: 1041423428 (0x3e12dc44)
    Signature Algorithm: md5WithRSAEncryption
        Issuer: emailAddress=support@rohde-schwarz.com, C=DE, ST=Bavarian, L=Munich, O=R&S, OU=R&S ATE, CN=slp.rs.de
        Validity
            Not Before: Jan  1 12:17:08 2003 GMT
            Not After : Dec 26 12:17:08 2027 GMT
        Subject: emailAddress=support@rohde-schwarz.com, C=DE, ST=Bavarian, L=Munich, O=R&S, OU=R&S ATE, CN=slp.rs.de
        Subject Public Key Info:
            Public Key Algorithm: rsaEncryption
                Public-Key: (1024 bit)
                Modulus:
                    00:9c:a7:91:38:fc:e3:1f:0a:3f:19:d7:de:f2:50:
                    ef:f8:3f:00:c4:cf:5f:83:a7:a1:15:05:b7:a7:de:
                    ba:c0:7d:b6:5c:c3:ea:3b:78:ab:71:5d:ec:4c:63:
                    9a:6e:39:2b:02:de:3c:62:33:f7:52:5b:82:1c:0d:
                    f5:71:b9:db:4f:84:fb:cc:80:f1:ae:d0:3c:35:38:
                    c3:d4:d0:14:0e:26:f5:a7:70:24:50:0f:45:6f:ae:
                    a0:09:fe:53:0f:3d:5f:3c:f3:f2:eb:20:91:c6:45:
                    b4:53:4f:27:67:73:8a:30:d0:51:db:fb:11:63:e8:
                    80:15:51:3d:10:6f:59:fb:95
                Exponent: 65537 (0x10001)
    Signature Algorithm: md5WithRSAEncryption
         69:01:28:c4:73:c4:14:c4:18:ba:7c:42:bc:e4:72:c5:a5:03:
         24:c8:f3:58:5f:94:f1:a4:59:bd:11:99:de:dd:0d:7a:8b:02:
         1a:58:8e:1b:71:86:d1:49:38:32:7a:66:90:89:cb:16:bf:d4:
         5e:7f:b6:ab:be:f6:f8:be:62:21:f9:b0:86:4a:6b:14:b4:bb:
         9e:9d:3d:7e:e7:84:b0:d3:29:bd:99:73:df:37:bf:b0:d7:d5:
         a9:8c:ed:7f:09:2b:6e:05:e8:c2:f4:a8:48:0b:d6:bd:98:99:
         ee:b1:72:fb:40:09:d0:c8:ac:50:60:78:33:72:4a:c3:ab:60:
         38:a6
SHA1 Fingerprint=81:6C:C2:FE:CA:68:FB:C4:33:65:2A:B9:6B:51:1D:61:47:92:FB:EE
